(lp0
I18
aI30
aI9
aI73
aI21
aI20
aI16
aI14
aI17
aI24
aI18
aI43
aI25
aI35
aI8
aI36
aI13
aI10
aI35
aI11
aI20
aI2
aI35
aI35
aI9
aI26
aI13
aI14
aI23
aI3
aI29
aI30
aI11
aI16
aI8
aI33
aI31
aI12
aI19
aI10
aI0
aI17
aI5
aI14
aI21
aI5
aI21
aI13
aI3
aI6
aI24
aI17
aI14
aI25
aI8
aI11
aI16
aI7
aI28
aI3
aI4
aI17
aI10
aI11
aI21
aI13
aI12
aI17
aI5
aI35
aI22
aI25
aI43
aI3
aI7
aI31
aI36
aI25
aI11
aI45
aI19
aI16
aI11
aI15
aI20
aI23
aI32
aI17
aI9
aI9
aI16
aI45
aI26
aI5
aI35
aI16
aI29
aI34
aI41
aI20
aI19
aI5
aI19
aI13
aI30
aI13
aI21
aI20
aI7
aI5
aI43
aI25
aI26
aI17
aI44
aI0
aI9
aI48
aI28
aI15
aI65
aI18
aI13
aI11
aI5
aI15
aI0
aI9
aI16
aI19
aI25
aI42
aI33
aI16
aI19
aI40
aI7
aI21
aI2
aI23
aI38
aI16
aI27
aI12
aI26
aI32
aI29
aI20
aI35
aI24
aI9
aI7
aI20
aI19
aI20
aI14
aI58
aI27
aI24
aI3
aI17
aI23
aI27
aI5
aI52
aI37
aI21
aI31
aI7
aI18
aI8
aI14
aI17
aI51
aI21
aI20
aI10
aI40
aI8
aI27
aI23
aI12
aI15
aI27
aI17
aI8
aI5
aI14
aI6
aI16
aI7
aI46
aI10
aI20
aI12
aI18
aI23
aI24
aI71
aI31
aI18
aI14
aI13
aI17
aI54
aI17
aI7
aI1
aI5
aI11
aI7
aI5
aI9
aI37
aI48
aI17
aI30
aI19
aI24
aI78
aI6
aI43
aI20
aI29
aI25
aI11
aI20
aI36
aI20
aI25
aI14
aI29
aI54
aI12
aI14
aI26
aI18
aI9
aI11
aI21
aI28
aI23
aI10
aI16
aI8
aI16
aI15
aI19
aI36
aI21
aI12
aI14
aI15
aI43
aI10
aI15
aI16
aI11
aI15
aI12
aI25
aI8
aI29
aI26
aI28
aI34
aI29
aI12
aI24
aI14
aI15
aI33
aI29
aI34
aI11
aI14
aI18
aI8
aI12
aI30
aI11
aI24
aI9
aI14
aI30
aI5
aI62
aI23
aI15
aI15
aI25
aI27
aI20
aI47
aI16
aI24
aI34
aI5
aI12
aI45
aI39
aI35
aI19
aI62
aI26
aI18
aI7
aI13
aI40
aI51
aI13
aI19
aI17
aI14
aI19
aI21
aI37
aI25
aI12
aI51
aI19
aI12
aI12
aI11
aI30
aI6
aI19
aI16
aI56
aI10
aI40
aI40
aI58
aI31
aI16
aI17
aI13
aI31
aI19
aI9
aI21
aI18
aI50
aI45
aI7
aI29
aI20
aI31
aI31
aI9
aI5
aI20
aI8
aI13
aI14
aI11
aI0
aI13
aI23
aI43
aI9
aI23
aI15
aI31
aI13
aI10
aI18
aI38
aI13
aI37
aI18
aI22
aI10
aI48
aI41
aI16
aI20
aI31
aI29
aI12
aI28
aI17
aI47
aI18
aI9
aI7
aI18
aI12
aI26
aI8
aI20
aI5
aI12
aI28
aI33
aI21
aI11
aI17
aI17
aI20
aI23
aI15
aI33
aI33
aI6
aI14
aI34
aI11
aI21
aI21
aI26
aI17
aI11
aI1
aI19
aI58
aI5
aI22
aI1
aI17
aI21
aI50
aI14
aI19
aI22
aI30
aI11
aI36
aI16
aI25
aI31
aI24
aI34
aI25
aI19
aI19
aI19
aI13
aI18
aI28
aI21
aI49
aI17
aI46
aI45
aI29
aI0
aI4
aI15
aI7
aI22
aI21
aI11
aI39
aI16
aI6
aI16
aI26
aI15
aI14
aI29
aI19
aI14
aI13
aI11
aI14
aI23
aI25
aI6
aI44
aI15
aI10
aI25
aI30
aI15
aI16
aI18
aI17
aI44
aI38
aI21
aI22
aI31
aI23
aI10
aI13
aI53
aI20
aI22
aI11
aI32
aI17
aI19
aI35
aI19
aI53
aI12
aI12
aI43
aI11
aI2
aI18
aI35
aI11
aI25
aI25
aI10
aI15
aI16
aI22
aI19
aI22
aI13
aI16
aI23
aI23
aI27
aI36
aI16
aI26
aI16
aI33
aI7
aI11
aI15
aI9
aI15
aI59
aI12
aI19
aI16
aI66
aI22
aI14
aI11
aI11
aI24
aI7
aI20
aI27
aI14
aI21
aI1
aI21
aI11
aI14
aI36
aI24
aI25
aI22
aI31
aI23
aI52
aI33
aI19
aI20
aI36
aI29
aI18
aI34
aI16
aI31
aI20
aI17
aI15
aI18
aI17
aI33
aI14
aI15
aI25
aI13
aI23
aI21
aI8
aI15
aI25
aI39
aI19
aI20
aI17
aI34
aI21
aI21
aI14
aI50
aI5
aI8
aI27
aI22
aI24
aI6
aI12
aI9
aI20
aI29
aI27
aI10
aI10
aI26
aI95
aI28
aI25
aI20
aI14
aI24
aI6
aI17
aI21
aI33
aI6
aI28
aI15
aI16
aI13
aI44
aI25
aI7
aI14
aI12
aI11
aI15
aI23
aI7
aI2
aI14
aI28
aI22
aI7
aI20
aI26
aI10
aI25
aI15
aI29
aI21
aI25
aI7
aI6
aI25
aI23
aI11
aI17
aI30
aI22
aI51
aI7
aI34
aI20
aI14
aI17
aI22
aI10
aI36
aI21
aI22
aI18
aI30
aI17
aI7
aI18
aI29
aI19
aI36
aI17
aI17
aI32
aI19
aI22
aI18
aI5
aI9
aI18
aI13
aI6
aI37
aI13
aI27
aI9
aI55
aI14
aI15
aI13
aI26
aI8
aI23
aI16
aI16
aI5
aI4
aI7
aI8
aI10
aI9
aI35
aI14
aI36
aI24
aI20
aI1
aI39
aI21
aI29
aI19
aI34
aI10
aI79
aI22
aI10
aI39
aI18
aI19
aI7
aI9
aI7
aI23
aI13
aI31
aI24
aI37
aI14
aI23
aI27
aI28
aI1
aI29
aI6
aI18
aI37
aI11
aI10
aI31
aI17
aI22
aI8
aI9
aI14
aI28
aI21
aI61
aI24
aI40
aI42
aI12
aI8
aI17
aI8
aI25
aI31
aI5
aI6
aI20
aI33
aI10
aI19
aI36
aI13
aI18
aI36
aI20
aI5
aI41
aI28
aI9
aI35
aI12
aI23
aI9
aI12
aI24
aI4
aI20
aI19
aI13
aI29
aI32
aI7
aI23
aI29
aI39
aI13
aI25
aI16
aI14
aI20
aI15
aI41
aI18
aI13
aI26
aI28
aI22
aI5
aI15
aI23
aI13
aI31
aI12
aI53
aI11
aI14
aI3
aI19
aI11
aI38
aI16
aI30
aI11
aI14
aI18
aI26
aI20
aI16
aI50
aI51
aI17
aI11
aI10
aI10
aI47
aI11
aI27
aI16
aI23
aI11
aI18
aI25
aI20
aI13
aI0
aI15
aI43
aI35
aI39
aI48
aI13
aI24
aI6
aI9
aI34
aI16
aI39
aI57
aI5
aI64
aI43
aI16
aI19
aI29
aI18
aI18
aI23
aI10
aI35
aI14
aI20
aI9
aI12
aI38
aI8
aI77
aI35
aI1
aI20
aI12
aI37
aI12
aI20
aI50
aI15
aI22
aI33
aI37
aI27
aI35
aI48
aI22
aI40
aI28
aI13
aI42
aI18
aI24
aI18
aI15
aI32
aI16
aI21
aI28
aI26
aI4
aI19
aI22
aI8
aI30
aI25
aI14
aI18
aI34
aI13
aI10
aI24
aI6
aI20
aI17
aI76
aI60
aI26
aI10
aI27
aI17
aI4
aI34
aI36
aI5
aI25
aI9
aI22
aI2
aI14
aI9
aI24
aI13
aI8
aI20
aI14
aI13
aI6
aI7
aI51
aI9
aI14
aI26
aI5
aI25
aI24
aI3
aI13
aI46
aI29
aI27
aI21
aI9
aI57
aI15
aI27
aI31
aI18
aI13
aI13
aI29
aI37
aI8
aI34
aI25
aI6
aI33
aI35
aI19
aI23
aI23
aI27
aI32
aI7
aI44
aI11
aI10
aI39
aI20
aI10
aI4
aI3
aI6
aI14
aI22
aI38
aI19
aI48
aI19
aI9
aI33
aI20
aI19
aI20
aI22
aI13
aI39
aI13
aI8
aI0
aI13
aI15
aI15
aI7
aI55
aI60
aI18
aI20
aI14
aI17
aI7
aI12
aI22
aI26
aI14
aI41
aI26
aI32
aI11
aI21
aI9
aI24
aI31
aI12
aI9
aI28
aI16
aI12
aI25
aI33
aI7
aI51
aI7
aI32
aI38
aI22
aI24
aI5
aI27
aI15
aI32
aI19
aI11
aI22
aI40
aI16
aI26
aI13
aI14
aI20
aI48
aI23
aI35
aI24
aI28
aI17
aI37
aI26
aI16
aI5
aI32
aI23
aI9
aI5
aI63
aI24
aI12
aI10
aI61
aI22
aI24
aI39
aI18
aI32
aI31
aI18
aI22
aI12
aI12
aI15
aI8
aI42
aI6
aI23
aI19
aI68
aI11
aI23
aI10
aI40
aI11
aI16
aI12
aI10
aI48
aI13
aI11
aI19
aI16
aI15
aI9
aI6
aI29
aI12
aI21
aI30
aI15
aI18
aI35
aI32
aI25
aI53
aI22
aI43
aI3
aI12
aI10
aI13
aI13
aI12
aI50
aI42
aI21
aI19
aI73
aI22
aI10
aI15
aI2
aI21
aI3
aI28
aI26
aI15
aI9
aI18
aI34
aI8
aI21
aI37
aI20
aI25
aI10
aI35
aI26
aI47
aI4
aI20
aI12
aI13
aI40
aI25
aI13
aI19
aI38
aI10
aI15
aI25
aI14
aI20
aI9
aI20
aI32
aI22
aI38
aI23
aI13
aI33
aI17
aI51
aI32
aI20
aI21
aI24
aI33
aI27
aI58
aI32
aI2
aI25
aI25
aI41
aI33
aI9
aI22
aI3
aI30
aI16
aI16
aI10
aI26
aI21
aI21
aI16
aI23
aI27
aI16
aI23
aI8
aI15
aI54
aI22
aI11
aI24
aI12
aI11
aI19
aI19
aI13
aI21
aI36
aI30
aI59
aI27
aI11
aI8
aI14
aI27
aI19
aI12
aI25
aI69
aI19
aI0
aI22
aI33
aI26
aI26
aI15
aI20
aI23
aI15
aI15
aI16
aI10
aI14
aI24
aI3
aI5
aI21
aI6
aI7
aI21
aI6
aI48
aI25
aI26
aI12
aI11
aI26
aI33
aI38
aI17
aI7
aI32
aI57
aI21
aI13
aI17
aI8
aI18
aI18
aI27
aI13
aI18
aI32
aI25
aI9
aI16
aI14
aI11
aI30
aI8
aI12
aI28
aI11
aI20
aI10
aI22
aI12
aI9
aI10
aI8
aI8
aI50
aI8
aI24
aI19
aI14
aI21
aI20
aI12
aI11
aI16
aI10
aI17
aI17
aI12
aI17
aI26
aI2
aI19
aI18
aI17
aI22
aI31
aI14
aI31
aI20
aI21
aI14
aI17
aI36
aI7
aI19
aI24
aI25
aI23
aI16
aI41
aI51
aI8
aI12
aI14
aI20
aI35
aI22
aI27
aI8
aI15
aI33
aI44
aI22
aI20
aI9
aI22
aI32
aI27
aI50
aI15
aI17
aI39
aI5
aI28
aI47
aI12
aI19
aI33
aI16
aI10
aI6
aI9
aI25
aI14
aI27
aI18
aI32
aI15
aI51
aI3
aI30
aI10
aI20
aI29
aI48
aI17
aI27
aI32
aI26
aI20
aI6
aI8
aI11
aI12
aI35
aI35
aI45
aI19
aI24
aI24
aI24
aI11
aI5
aI16
aI24
aI25
aI13
aI33
aI30
aI33
aI25
aI30
aI11
aI7
aI19
aI27
aI15
aI31
aI60
aI9
aI48
aI30
aI5
aI5
aI23
aI32
aI15
aI8
aI25
aI30
aI35
aI28
aI17
aI10
aI5
aI12
aI23
aI26
aI9
aI13
aI48
aI26
aI41
aI27
aI36
aI10
aI12
aI33
aI17
aI18
aI15
aI19
aI23
aI12
aI11
aI16
aI1
aI29
aI10
aI18
aI26
aI16
aI27
aI19
aI17
aI18
aI25
aI6
aI41
aI15
aI24
aI9
aI36
aI13
aI5
aI35
aI17
aI52
aI21
aI27
aI10
aI42
aI17
aI31
aI13
aI15
aI12
aI10
aI8
aI150
aI30
aI8
aI14
aI26
aI36
aI25
aI24
aI11
aI9
aI5
aI16
aI16
aI11
aI11
aI11
aI8
aI16
aI6
aI2
aI29
aI25
aI6
aI15
aI18
aI36
aI11
aI82
aI4
aI20
aI8
aI12
aI4
aI25
aI24
aI33
aI19
aI16
aI21
aI25
aI27
aI46
aI10
aI25
aI6
aI29
aI6
aI14
aI35
aI7
aI6
aI45
aI32
aI9
aI35
aI42
aI19
aI6
aI29
aI9
aI13
aI8
aI16
aI54
aI15
aI16
aI13
aI11
aI6
aI10
aI34
aI26
aI6
aI13
aI14
aI9
aI17
aI15
aI42
aI14
aI13
aI20
aI16
aI17
aI12
aI8
aI11
aI31
aI21
aI14
aI15
aI5
aI3
aI18
aI25
aI13
aI18
aI20
aI3
aI6
aI23
aI27
aI32
aI17
aI3
aI12
aI38
aI17
aI10
aI17
aI27
aI23
aI12
aI22
aI33
aI7
aI13
aI36
aI47
aI16
aI6
aI8
aI22
aI35
aI37
aI15
aI12
aI18
aI10
aI14
aI21
aI13
aI10
aI31
aI33
aI19
aI12
aI17
aI28
aI13
aI13
aI13
aI33
aI33
aI36
aI27
aI41
aI11
aI24
aI27
aI25
aI33
aI19
aI20
aI16
aI21
aI26
aI30
aI27
aI29
aI15
aI5
aI24
aI16
aI12
aI17
aI19
aI15
aI17
aI28
aI10
aI21
aI32
aI25
aI20
aI16
aI37
aI12
aI10
aI21
aI11
aI39
aI18
aI12
aI19
aI11
aI13
aI20
aI28
aI7
aI27
aI10
aI25
aI17
aI28
aI18
aI25
aI23
aI22
aI12
aI21
aI15
aI19
aI13
aI17
aI36
aI14
aI47
aI5
aI3
aI21
aI36
aI16
aI20
aI41
aI20
aI61
aI10
aI16
aI20
aI42
aI23
aI14
aI17
aI25
aI19
aI32
aI41
aI11
aI22
aI16
aI39
aI12
aI26
aI18
aI17
aI20
aI12
aI18
aI34
aI7
aI32
aI4
aI8
aI13
aI8
aI25
aI32
aI25
aI12
aI17
aI44
aI23
aI34
aI21
aI14
aI18
aI53
aI22
aI18
aI21
aI43
aI37
aI63
aI17
aI7
aI35
aI20
aI15
aI4
aI38
aI8
aI55
aI16
aI17
aI34
aI13
aI25
aI12
aI14
aI21
aI16
aI9
aI16
aI14
aI7
aI11
aI32
aI52
aI13
aI58
aI7
aI41
aI20
aI30
aI17
aI38
aI30
aI19
aI58
aI20
aI9
aI21
aI14
aI15
aI15
aI8
aI34
aI55
aI19
aI23
aI21
aI31
aI24
aI10
aI52
aI54
aI19
aI14
aI34
aI9
aI10
aI0
aI13
aI26
aI11
aI9
aI3
aI17
aI18
aI28
aI18
aI4
aI5
aI9
aI3
aI19
aI8
aI2
aI17
aI22
aI4
aI26
aI4
aI11
aI31
aI15
aI17
aI34
aI23
aI7
aI4
aI2
aI7
aI2
aI1
aI5
aI25
aI17
aI15
aI3
aI5
aI8
aI12
aI29
aI4
aI49
aI19
aI8
aI29
aI37
aI14
aI3
aI12
aI9
aI12
aI13
aI4
aI11
aI25
aI15
aI11
aI20
aI9
aI3
aI14
aI7
aI22
aI24
aI11
aI13
aI17
aI10
aI6
aI11
aI11
aI30
aI3
aI6
aI9
aI23
aI14
aI26
aI2
aI9
aI7
aI20
aI12
aI13
aI8
aI14
aI5
aI8
aI26
aI3
aI24
aI12
aI12
aI18
aI25
aI21
aI13
aI20
aI35
aI14
aI9
aI6
aI28
aI9
aI9
aI7
aI7
aI1
aI3
aI6
aI6
aI4
aI8
aI10
aI20
aI3
aI12
aI4
aI44
aI12
aI14
aI14
aI9
aI2
aI14
aI35
aI4
aI13
aI13
aI0
aI26
aI11
aI15
aI5
aI5
aI20
aI4
aI3
aI8
aI10
aI10
aI26
aI16
aI15
aI9
aI9
aI31
aI31
aI19
aI15
aI12
aI14
aI3
aI44
aI13
aI20
aI10
aI9
aI7
aI4
aI23
aI14
aI20
aI7
aI21
aI20
aI18
aI7
aI1
aI9
aI5
aI15
aI3
aI10
aI24
aI6
aI9
aI15
aI8
aI13
aI8
aI1
aI24
aI10
aI5
aI15
aI13
aI9
aI4
aI8
aI16
aI31
aI9
aI44
aI25
aI22
aI22
aI12
aI16
aI3
aI12
aI17
aI19
aI22
aI18
aI37
aI12
aI9
aI14
aI14
aI9
aI6
aI17
aI9
aI13
aI15
aI11
aI31
aI4
aI13
aI12
aI15
aI22
aI24
aI8
aI42
aI17
aI3
aI15
aI11
aI12
aI32
aI27
aI0
aI12
aI30
aI15
aI9
aI11
aI11
aI24
aI14
aI47
aI12
aI6
aI15
aI6
aI6
aI21
aI13
aI18
aI5
aI37
aI7
aI2
aI19
aI32
aI20
aI8
aI7
aI6
aI13
aI9
aI9
aI27
aI3
aI3
aI8
aI11
aI19
aI26
aI5
aI9
aI7
aI10
aI30
aI16
aI22
aI7
aI25
aI4
aI46
aI7
aI17
aI14
aI5
aI36
aI15
aI27
aI8
aI6
aI6
aI33
aI14
aI14
aI7
aI26
aI13
aI31
aI18
aI23
aI7
aI29
aI24
aI19
aI5
aI9
aI9
aI17
aI9
aI10
aI27
aI15
aI11
aI16
aI19
aI7
aI10
aI13
aI31
aI42
aI19
aI19
aI20
aI16
aI3
aI21
aI25
aI9
aI8
aI12
aI14
aI6
aI24
aI3
aI11
aI13
aI20
aI21
aI22
aI10
aI0
aI28
aI13
aI8
aI5
aI21
aI9
aI10
aI11
aI8
aI2
aI18
aI4
aI12
aI39
aI9
aI23
aI8
aI6
aI6
aI25
aI6
aI8
aI25
aI13
aI6
aI4
aI7
aI8
aI5
aI9
aI5
aI6
aI10
aI13
aI19
aI19
aI22
aI27
aI19
aI12
aI21
aI7
aI23
aI4
aI11
aI6
aI3
aI16
aI16
aI18
aI11
aI12
aI4
aI1
aI16
aI17
aI11
aI10
aI34
aI15
aI11
aI3
aI26
aI17
aI10
aI18
aI23
aI8
aI32
aI21
aI35
aI13
aI4
aI9
aI6
aI17
aI15
aI9
aI15
aI22
aI8
aI12
aI12
aI7
aI18
aI9
aI8
aI6
aI22
aI16
aI11
aI36
aI5
aI10
aI11
aI11
aI22
aI96
aI57
aI18
aI21
aI18
aI5
aI16
aI9
aI0
aI11
aI20
aI23
aI11
aI10
aI28
aI3
aI11
aI24
aI4
aI13
aI13
aI7
aI22
aI9
aI13
aI22
aI2
aI11
aI7
aI33
aI7
aI18
aI29
aI5
aI12
aI3
aI6
aI28
aI20
aI28
aI17
aI10
aI29
aI5
aI12
aI7
aI21
aI12
aI21
aI11
aI7
aI20
aI24
aI14
aI15
aI6
aI6
aI5
aI15
aI30
aI6
aI5
aI12
aI3
aI4
aI8
aI13
aI26
aI4
aI20
aI12
aI4
aI14
aI5
aI20
aI4
aI27
aI8
aI18
aI19
aI10
aI10
aI2
aI21
aI12
aI4
aI22
aI15
aI1
aI15
aI15
aI15
aI49
aI10
aI17
aI5
aI9
aI12
aI9
aI5
aI18
aI27
aI15
aI7
aI7
aI19
aI9
aI20
aI8
aI16
aI16
aI6
aI17
aI25
aI0
aI10
aI4
aI30
aI3
aI15
aI31
aI8
aI19
aI35
aI25
aI3
aI13
aI12
aI14
aI31
aI6
aI27
aI8
aI16
aI14
aI5
aI2
aI16
aI3
aI10
aI10
aI39
aI11
aI4
aI13
aI8
aI10
aI36
aI16
aI13
aI10
aI10
aI10
aI23
aI20
aI6
aI17
aI35
aI9
aI12
aI19
aI43
aI24
aI24
aI14
aI14
aI10
aI12
aI5
aI6
aI36
aI18
aI59
aI31
aI17
aI10
aI49
aI36
aI35
aI3
aI2
aI17
aI3
aI8
aI19
aI1
aI16
aI21
aI7
aI10
aI9
aI30
aI17
aI8
aI7
aI15
aI26
aI8
aI9
aI9
aI54
aI10
aI16
aI22
aI29
aI5
aI11
aI18
aI32
aI10
aI3
aI20
aI11
aI8
aI4
aI12
aI20
aI14
aI31
aI8
aI6
aI12
aI6
aI6
aI15
aI3
aI3
aI1
aI3
aI4
aI11
aI3
aI4
aI9
aI43
aI44
aI5
aI14
aI7
aI8
aI27
aI3
aI9
aI18
aI10
aI22
aI14
aI16
aI11
aI28
aI20
aI18
aI16
aI8
aI23
aI16
aI15
aI23
aI16
aI21
aI3
aI31
aI12
aI18
aI12
aI6
aI7
aI4
aI19
aI24
aI8
aI21
aI18
aI10
aI12
aI19
aI20
aI13
aI17
aI41
aI14
aI8
aI4
aI8
aI5
aI16
aI4
aI26
aI14
aI11
aI18
aI28
aI20
aI6
aI8
aI3
aI6
aI7
aI37
aI11
aI34
aI74
aI6
aI5
aI13
aI13
aI28
aI13
aI3
aI17
aI5
aI5
aI16
aI10
aI5
aI13
aI24
aI19
aI39
aI15
aI20
aI5
aI23
aI3
aI11
aI14
aI12
aI30
aI20
aI8
aI16
aI14
aI4
aI17
aI16
aI12
aI14
aI18
aI6
aI28
aI10
aI2
aI15
aI29
aI11
aI8
aI11
aI11
aI6
aI9
aI50
aI21
aI9
aI19
aI39
aI14
aI14
aI13
aI11
aI15
aI24
aI8
aI30
aI10
aI12
aI29
aI29
aI18
aI20
aI15
aI6
aI14
aI9
aI18
aI12
aI8
aI4
aI6
aI1
aI3
aI18
aI5
aI26
aI8
aI5
aI2
aI13
aI10
aI11
aI7
aI2
aI29
aI26
aI24
aI12
aI1
aI30
aI11
aI8
aI11
aI8
aI22
aI7
aI10
aI11
aI3
aI21
aI10
aI30
aI12
aI5
aI10
aI24
aI3
aI18
aI30
aI17
aI24
aI16
aI4
aI7
aI17
aI12
aI17
aI25
aI12
aI17
aI7
aI31
aI31
aI21
aI13
aI12
aI4
aI12
aI14
aI9
aI11
aI14
aI24
aI12
aI37
aI18
aI9
aI15
aI21
aI18
aI12
aI7
aI5
aI6
aI17
aI10
aI3
aI35
aI57
aI15
aI10
aI9
aI25
aI2
aI0
aI7
aI12
aI7
aI4
aI17
aI11
aI13
aI6
aI9
aI6
aI8
aI5
aI5
aI9
aI26
aI14
aI17
aI6
aI4
aI4
aI13
aI10
aI21
aI3
aI14
aI14
aI15
aI7
aI16
aI3
aI38
aI16
aI13
aI16
aI21
aI5
aI6
aI8
aI20
aI18
aI20
aI17
aI27
aI11
aI21
aI19
aI38
aI15
aI17
aI13
aI11
aI8
aI16
aI15
aI25
aI19
aI36
aI20
aI11
aI25
aI8
aI3
aI33
aI4
aI15
aI14
aI9
aI42
aI6
aI4
aI11
aI21
aI24
aI19
aI24
aI15
aI28
aI4
aI17
aI10
aI17
aI35
aI19
aI10
aI18
aI41
aI21
aI4
aI24
aI36
aI25
aI3
aI4
aI10
aI4
aI13
aI0
aI6
aI14
aI8
aI13
aI18
aI22
aI53
aI19
aI18
aI6
aI4
aI11
aI16
aI8
aI32
aI24
aI7
aI9
aI7
aI29
aI12
aI7
aI12
aI18
aI10
aI10
aI8
aI17
aI4
aI17
aI25
aI1
aI13
aI38
aI24
aI2
aI7
aI13
aI14
aI18
aI16
aI17
aI18
aI7
aI8
aI6
aI13
aI4
aI32
aI8
aI13
aI26
aI24
aI11
aI6
aI16
aI9
aI20
aI9
aI26
aI40
aI22
aI20
aI15
aI25
aI14
aI9
aI25
aI5
aI1
aI2
aI8
aI37
aI20
aI21
aI17
aI11
aI13
aI6
aI13
aI24
aI13
aI12
aI13
aI32
aI20
aI19
aI6
aI8
aI33
aI15
aI19
aI20
aI11
aI6
aI8
aI9
aI13
aI13
aI4
aI5
aI21
aI19
aI12
aI12
aI8
aI3
aI33
aI5
aI10
aI6
aI16
aI38
aI6
aI12
aI23
aI12
aI25
aI33
aI56
aI28
aI7
aI4
aI16
aI4
aI11
aI10
aI5
aI15
aI10
aI19
aI15
aI28
aI9
aI39
aI4
aI18
aI13
aI4
aI14
aI24
aI21
aI25
aI10
aI15
aI9
aI14
aI16
aI14
aI7
aI5
aI10
aI30
aI31
aI49
aI14
aI9
aI22
aI21
aI5
aI25
aI7
aI5
aI4
aI29
aI13
aI20
aI7
aI6
aI16
aI6
aI21
aI28
aI1
aI10
aI5
aI2
aI16
aI23
aI1
aI5
aI7
aI1
aI16
aI21
aI20
aI11
aI24
aI15
aI16
aI12
aI15
aI9
aI14
aI7
aI11
aI17
aI31
aI16
aI38
aI28
aI22
aI4
aI11
aI6
aI16
aI31
aI23
aI10
aI10
aI20
aI7
aI12
aI14
aI2
aI28
aI10
aI21
aI14
aI26
aI23
aI25
aI6
aI13
aI13
aI11
aI35
aI4
aI9
aI13
aI29
aI30
aI17
aI7
aI4
aI10
aI11
aI16
aI2
aI9
aI17
aI2
aI28
aI22
aI11
aI24
aI9
aI6
aI20
aI10
aI3
aI15
aI7
aI16
aI10
aI15
aI17
aI12
aI2
aI4
aI9
aI12
aI20
aI12
aI5
aI26
aI7
aI18
aI4
aI6
aI13
aI13
aI16
aI24
aI19
aI11
aI21
aI19
aI2
aI15
aI21
aI26
aI17
aI8
aI33
aI7
aI14
aI12
aI15
aI18
aI25
aI11
aI1
aI7
aI9
aI14
aI5
aI10
aI12
aI5
aI22
aI16
aI16
aI18
aI16
aI13
aI16
aI1
aI7
aI26
aI4
aI17
aI10
aI8
aI6
aI2
aI16
aI13
aI29
aI21
aI10
aI17
aI11
aI17
aI17
aI23
aI2
aI12
aI22
aI29
aI12
aI18
aI5
aI9
aI8
aI11
aI18
aI5
aI5
aI3
aI10
aI18
aI4
aI10
aI33
aI13
aI10
aI19
aI13
aI6
aI19
aI3
aI9
aI31
aI32
aI13
aI1
aI5
aI0
aI23
aI23
aI16
aI23
aI12
aI19
aI29
aI4
aI23
aI9
aI5
aI4
aI9
aI13
aI10
aI24
aI5
aI5
aI6
aI4
aI13
aI9
aI15
aI36
aI1
aI10
aI15
aI11
aI9
aI23
aI19
aI10
aI8
aI35
aI28
aI10
aI7
aI4
aI3
aI10
aI7
aI38
aI18
aI36
aI3
aI38
aI1
aI10
aI12
aI13
aI31
aI14
aI13
aI13
aI9
aI15
aI54
aI15
aI7
aI12
aI7
aI17
aI14
aI9
aI3
aI28
aI18
aI12
aI35
aI2
aI6
aI8
aI14
aI24
aI14
aI17
aI14
aI10
aI11
aI7
aI25
aI30
aI13
aI29
aI29
aI13
aI21
aI9
aI4
aI22
aI37
aI11
aI4
aI6
aI13
aI4
aI7
aI23
aI11
aI8
aI0
aI0
aI22
aI21
aI15
aI13
aI8
aI7
aI14
aI49
aI7
aI11
aI26
aI15
aI24
aI8
aI14
aI18
aI1
aI8
aI24
aI8
aI13
aI13
aI7
aI11
aI36
aI26
aI10
aI21
aI8
aI20
aI5
aI7
aI5
aI14
aI6
aI5
aI12
aI2
aI38
aI17
aI7
aI11
aI8
aI24
aI10
aI19
aI18
aI30
aI26
aI21
aI8
aI17
aI11
aI10
aI9
aI19
aI4
aI10
aI8
aI9
aI7
aI27
aI17
aI10
aI13
aI25
aI6
aI9
aI7
aI5
aI5
aI2
aI10
aI12
aI3
aI8
aI14
aI4
aI12
aI4
aI11
aI21
aI9
aI22
aI19
aI4
aI25
aI6
aI13
aI8
aI9
aI35
aI23
aI30
aI17
aI19
aI15
aI17
aI25
aI13
aI17
aI30
aI27
aI13
aI7
aI9
aI23
aI12
aI1
aI3
aI27
aI5
aI7
aI39
aI12
aI16
aI7
aI1
aI9
aI3
aI6
aI18
aI5
aI17
aI17
aI1
aI8
aI10
aI15
aI25
aI8
aI5
aI24
aI16
aI5
aI8
aI24
aI9
aI33
aI24
aI21
aI5
aI10
aI20
aI16
aI15
aI18
aI23
aI6
aI1
aI20
aI10
aI12
aI14
aI5
aI14
aI68
aI7
aI15
aI26
aI8
aI9
aI20
aI39
aI18
aI11
aI12
aI24
aI9
aI7
aI21
aI6
aI6
aI12
aI43
aI36
aI4
aI9
aI29
aI9
aI11
aI2
aI15
aI8
aI7
aI24
aI9
aI13
aI5
aI7
aI5
aI11
aI21
aI6
aI17
aI29
aI11
aI22
aI0
aI9
aI11
aI10
aI9
aI5
aI6
aI9
aI12
aI7
aI21
aI10
aI7
aI6
aI12
aI7
aI20
aI1
aI51
aI6
aI12
aI0
aI12
aI4
aI11
aI5
aI1
aI28
aI4
aI6
aI9
aI26
aI14
aI7
aI16
aI9
aI5
aI20
aI7
aI23
aI10
aI13
aI4
aI15
aI6
aI13
aI4
aI1
aI7
aI51
aI23
aI9
aI15
aI12
aI22
aI11
aI13
aI12
aI5
aI17
aI26
aI17
aI30
aI16
aI11
aI15
aI5
aI9
aI28
aI2
aI10
aI11
aI24
aI9
aI8
aI16
aI10
aI3
aI13
aI6
aI5
aI4
aI7
aI42
aI41
aI18
aI7
aI6
aI36
aI16
aI15
aI17
aI18
aI19
aI28
aI1
aI4
aI18
aI11
aI5
aI7
aI12
aI17
aI3
aI25
aI13
aI33
aI9
aI8
aI7
aI7
aI4
aI9
aI7
aI7
aI60
aI4
aI56
aI14
aI67
aI35
aI22
aI9
aI5
aI8
aI7
aI13
aI19
aI15
aI20
aI7
aI22
aI24
aI49
aI11
aI8
aI7
aI17
aI13
aI5
aI11
aI17
aI1
aI16
aI3
aI9
aI9
aI2
aI0
aI8
aI1
aI3
aI9
aI0
aI2
aI1
aI2
aI4
aI4
aI3
aI1
aI4
aI0
aI0
aI5
aI4
aI1
aI4
aI1
aI8
aI2
aI3
aI5
aI0
aI4
aI3
aI0
aI0
aI2
aI2
aI0
aI2
aI1
aI2
aI1
aI7
aI2
aI2
aI2
aI3
aI7
aI4
aI3
aI1
aI7
aI4
aI10
aI6
aI1
aI5
aI2
aI22
aI4
aI4
aI0
aI2
aI0
aI0
aI5
aI3
aI0
aI5
aI0
aI1
aI3
aI7
aI4
aI0
aI2
aI3
aI6
aI4
aI2
aI2
aI13
aI2
aI6
aI1
aI0
aI1
aI1
aI3
aI1
aI6
aI1
aI0
aI6
aI0
aI4
aI7
aI2
aI0
aI3
aI4
aI2
aI1
aI0
aI3
aI2
aI0
aI2
aI10
aI7
aI0
aI4
aI1
aI2
aI0
aI3
aI6
aI2
aI4
aI3
aI2
aI9
aI4
aI0
aI3
aI5
aI3
aI11
aI4
aI0
aI4
aI4
aI2
aI4
aI0
aI0
aI5
aI0
aI0
aI4
aI1
aI2
aI2
aI8
aI3
aI0
aI6
aI7
aI5
aI3
aI4
aI2
aI4
aI1
aI6
aI0
aI1
aI2
aI2
aI2
aI5
aI3
aI1
aI5
aI7
aI4
aI8
aI1
aI4
aI5
aI2
aI4
aI2
aI2
aI1
aI3
aI4
aI9
aI6
aI3
aI0
aI1
aI4
aI3
aI0
aI4
aI1
aI0
aI4
aI3
aI1
aI4
aI1
aI0
aI2
aI5
aI0
aI9
aI3
aI1
aI6
aI0
aI6
aI9
aI0
aI4
aI1
aI0
aI0
aI3
aI2
aI10
aI1
aI3
aI4
aI1
aI2
aI5
aI1
aI0
aI7
aI0
aI0
aI1
aI5
aI1
aI4
aI1
aI1
aI2
aI2
aI2
aI3
aI3
aI0
aI1
aI0
aI1
aI1
aI3
aI7
aI0
aI1
aI6
aI1
aI4
aI1
aI3
aI6
aI2
aI3
aI8
aI2
aI0
aI3
aI0
aI0
aI3
aI0
aI5
aI1
aI1
aI1
aI2
aI0
aI6
aI3
aI5
aI2
aI2
aI6
aI3
aI1
aI6
aI5
aI2
aI1
aI1
aI3
aI2
aI7
aI3
aI3
aI6
aI8
aI0
aI0
aI2
aI7
aI1
aI2
aI4
aI3
aI6
aI0
aI0
aI4
aI1
aI1
aI0
aI6
aI3
aI7
aI0
aI4
aI13
aI6
aI3
aI0
aI2
aI1
aI1
aI6
aI2
aI1
aI1
aI4
aI0
aI4
aI2
aI5
aI2
aI2
aI1
aI0
aI4
aI0
aI1
aI5
aI3
aI4
aI3
aI3
aI3
aI1
aI1
aI6
aI1
aI0
aI1
aI2
aI2
aI1
aI7
aI0
aI1
aI0
aI4
aI2
aI0
aI1
aI13
aI1
aI3
aI2
aI5
aI3
aI7
aI9
aI0
aI8
aI0
aI0
aI10
aI3
aI2
aI0
aI2
aI5
aI2
aI7
aI2
aI4
aI2
aI4
aI3
aI0
aI1
aI0
aI1
aI4
aI12
aI3
aI5
aI2
aI1
aI1
aI1
aI4
aI0
aI1
aI14
aI1
aI2
aI4
aI3
aI1
aI6
aI3
aI3
aI2
aI4
aI0
aI1
aI7
aI6
aI6
aI3
aI3
aI1
aI0
aI1
aI1
aI1
aI1
aI3
aI2
aI8
aI1
aI1
aI3
aI4
aI1
aI1
aI3
aI0
aI7
aI3
aI14
aI2
aI7
aI0
aI3
aI0
aI5
aI1
aI0
aI13
aI3
aI1
aI3
aI0
aI0
aI11
aI0
aI4
aI2
aI1
aI1
aI7
aI1
aI2
aI5
aI2
aI4
aI3
aI2
aI1
aI2
aI2
aI1
aI3
aI1
aI6
aI1
aI5
aI2
aI4
aI0
aI0
aI3
aI6
aI3
aI5
aI4
aI4
aI2
aI8
aI1
aI3
aI7
aI1
aI3
aI5
aI3
aI0
aI5
aI1
aI5
aI7
aI3
aI1
aI6
aI2
aI10
aI1
aI3
aI2
aI4
aI3
aI2
aI1
aI0
aI3
aI1
aI9
aI1
aI3
aI2
aI1
aI0
aI2
aI2
aI4
aI3
aI1
aI4
aI3
aI3
aI1
aI1
aI1
aI0
aI1
aI1
aI3
aI4
aI2
aI3
aI1
aI0
aI0
aI1
aI3
aI2
aI0
aI5
aI0
aI2
aI4
aI1
aI2
aI0
aI0
aI1
aI2
aI0
aI1
aI4
aI3
aI12
aI3
aI10
aI2
aI0
aI12
aI1
aI0
aI3
aI1
aI1
aI1
aI2
aI4
aI1
aI2
aI0
aI1
aI1
aI0
aI1
aI6
aI1
aI4
aI3
aI5
aI1
aI1
aI0
aI1
aI4
aI3
aI4
aI3
aI12
aI1
aI4
aI7
aI2
aI1
aI4
aI3
aI8
aI2
aI2
aI4
aI0
aI4
aI5
aI5
aI1
aI1
aI6
aI2
aI3
aI1
aI3
aI1
aI0
aI1
aI9
aI4
aI2
aI0
aI2
aI3
aI3
aI1
aI2
aI3
aI3
aI3
aI4
aI2
aI0
aI5
aI1
aI1
aI5
aI0
aI0
aI0
aI1
aI3
aI1
aI2
aI0
aI0
aI3
aI2
aI3
aI3
aI1
aI1
aI2
aI4
aI3
aI0
aI2
aI2
aI3
aI5
aI3
aI0
aI1
aI5
aI8
aI0
aI1
aI0
aI0
aI2
aI0
aI3
aI0
aI7
aI5
aI4
aI1
aI7
aI3
aI0
aI1
aI10
aI2
aI1
aI1
aI2
aI1
aI9
aI1
aI4
aI2
aI1
aI1
aI2
aI2
aI1
aI6
aI1
aI1
aI11
aI2
aI3
aI6
aI1
aI3
aI2
aI4
aI2
aI5
aI2
aI6
aI9
aI2
aI1
aI2
aI4
aI0
aI9
aI4
aI2
aI1
aI0
aI1
aI4
aI0
aI3
aI5
aI4
aI4
aI0
aI2
aI6
aI2
aI3
aI5
aI0
aI0
aI0
aI1
aI1
aI6
aI1
aI0
aI12
aI0
aI2
aI1
aI1
aI6
aI1
aI1
aI2
aI0
aI1
aI3
aI0
aI4
aI1
aI0
aI3
aI6
aI0
aI4
aI3
aI3
aI4
aI3
aI3
aI0
aI5
aI5
aI7
aI5
aI0
aI1
aI9
aI1
aI0
aI2
aI4
aI5
aI1
aI2
aI3
aI3
aI7
aI2
aI3
aI3
aI6
aI1
aI4
aI1
aI2
aI3
aI2
aI3
aI5
aI4
aI4
aI1
aI4
aI0
aI0
aI0
aI3
aI4
aI4
aI5
aI1
aI3
aI0
aI1
aI3
aI1
aI2
aI1
aI4
aI2
aI2
aI0
aI3
aI2
aI1
aI0
aI0
aI2
aI9
aI0
aI3
aI2
aI2
aI1
aI0
aI2
aI1
aI3
aI3
aI3
aI5
aI3
aI3
aI3
aI5
aI2
aI2
aI1
aI5
aI2
aI3
aI4
aI1
aI5
aI1
aI6
aI0
aI0
aI4
aI5
aI1
aI3
aI4
aI0
aI3
aI1
aI6
aI5
aI6
aI1
aI1
aI5
aI1
aI16
aI0
aI2
aI2
aI4
aI1
aI4
aI3
aI2
aI6
aI0
aI1
aI2
aI3
aI3
aI2
aI0
aI1
aI5
aI0
aI2
aI2
aI1
aI5
aI2
aI0
aI3
aI5
aI7
aI0
aI0
aI3
aI15
aI4
aI5
aI3
aI0
aI5
aI3
aI4
aI1
aI6
aI1
aI4
aI2
aI3
aI0
aI2
aI6
aI0
aI3
aI2
aI6
aI8
aI13
aI3
aI3
aI3
aI15
aI8
aI0
aI3
aI3
aI8
aI6
aI6
aI2
aI3
aI10
aI9
aI0
aI5
aI1
aI4
aI7
aI3
aI1
aI4
aI4
aI0
aI0
aI4
aI0
aI1
aI2
aI5
aI4
aI8
aI1
aI8
aI2
aI3
aI3
aI4
aI9
aI1
aI2
aI0
aI4
aI1
aI7
aI3
aI0
aI2
aI0
aI0
aI1
aI5
aI0
aI11
aI1
aI2
aI5
aI2
aI0
aI2
aI1
aI1
aI2
aI5
aI0
aI5
aI0
aI1
aI1
aI5
aI4
aI0
aI7
aI1
aI3
aI0
aI3
aI1
aI3
aI4
aI6
aI1
aI8
aI4
aI1
aI0
aI7
aI2
aI3
aI2
aI4
aI1
aI1
aI5
aI1
aI1
aI1
aI1
aI2
aI1
aI1
aI2
aI0
aI0
aI5
aI8
aI2
aI1
aI4
aI0
aI0
aI2
aI2
aI1
aI0
aI14
aI5
aI1
aI3
aI2
aI0
aI2
aI1
aI3
aI3
aI3
aI1
aI2
aI2
aI6
aI0
aI3
aI3
aI0
aI3
aI0
aI6
aI2
aI3
aI5
aI1
aI5
aI0
aI1
aI0
aI6
aI0
aI4
aI4
aI3
aI0
aI11
aI7
aI1
aI1
aI0
aI3
aI0
aI1
aI2
aI1
aI3
aI4
aI9
aI6
aI5
aI0
aI1
aI0
aI2
aI3
aI3
aI3
aI9
aI5
aI0
aI1
aI8
aI2
aI0
aI1
aI3
aI2
aI2
aI0
aI3
aI1
aI6
aI3
aI0
aI1
aI3
aI2
aI1
aI5
aI0
aI0
aI7
aI2
aI2
aI3
aI6
aI1
aI2
aI1
aI1
aI2
aI3
aI0
aI9
aI0
aI5
aI2
aI1
aI2
aI2
aI1
aI0
aI2
aI6
aI6
aI1
aI3
aI5
aI7
aI2
aI1
aI1
aI5
aI6
aI1
aI6
aI1
aI3
aI6
aI1
aI1
aI1
aI2
aI3
aI1
aI2
aI3
aI0
aI7
aI8
aI1
aI3
aI1
aI5
aI3
aI4
aI7
aI4
aI0
aI3
aI2
aI3
aI6
aI0
aI7
aI7
aI2
aI1
aI5
aI6
aI2
aI1
aI3
aI4
aI2
aI5
aI2
aI2
aI1
aI1
aI2
aI4
aI0
aI2
aI3
aI4
aI6
aI0
aI3
aI1
aI1
aI2
aI2
aI1
aI0
aI2
aI1
aI3
aI3
aI0
aI4
aI0
aI9
aI1
aI4
aI1
aI6
aI0
aI4
aI3
aI1
aI3
aI1
aI6
aI8
aI6
aI5
aI2
aI3
aI5
aI3
aI0
aI4
aI4
aI4
aI0
aI7
aI1
aI1
aI0
aI3
aI4
aI2
aI10
aI1
aI0
aI0
aI0
aI1
aI4
aI0
aI4
aI2
aI4
aI1
aI2
aI2
aI5
aI5
aI6
aI6
aI1
aI2
aI2
aI1
aI1
aI1
aI4
aI0
aI2
aI1
aI3
aI7
aI0
aI3
aI1
aI3
aI3
aI1
aI1
aI3
aI1
aI4
aI5
aI0
aI0
aI10
aI3
aI1
aI15
aI0
aI4
aI2
aI2
aI1
aI5
aI0
aI4
aI1
aI1
aI2
aI0
aI4
aI2
aI4
aI0
aI2
aI6
aI3
aI5
aI0
aI1
aI3
aI1
aI4
aI2
aI5
aI2
aI5
aI0
aI5
aI2
aI1
aI4
aI4
aI3
aI2
aI5
aI1
aI1
aI5
aI4
aI5
aI0
aI1
aI0
aI0
aI4
aI2
aI2
aI2
aI2
aI7
aI1
aI7
aI0
aI1
aI1
aI6
aI3
aI5
aI0
aI5
aI2
aI0
aI6
aI0
aI1
aI1
aI0
aI1
aI5
aI3
aI1
aI7
aI1
aI6
aI1
aI0
aI2
aI3
aI2
aI8
aI4
aI4
aI4
aI0
aI3
aI3
aI2
aI2
aI4
aI3
aI2
aI4
aI10
aI4
aI5
aI3
aI1
aI0
aI5
aI6
aI8
aI0
aI2
aI1
aI3
aI3
aI3
aI7
aI1
aI4
aI5
aI0
aI2
aI2
aI8
aI1
aI1
aI0
aI1
aI5
aI4
aI3
aI2
aI6
aI1
aI4
aI5
aI7
aI5
aI1
aI3
aI0
aI0
aI0
aI1
aI4
aI3
aI0
aI2
aI1
aI0
aI3
aI6
aI2
aI1
aI5
aI6
aI5
aI1
aI2
aI0
aI1
aI0
aI12
aI2
aI4
aI1
aI2
aI4
aI4
aI4
aI2
aI15
aI1
aI3
aI2
aI7
aI1
aI0
aI0
aI3
aI2
aI2
aI8
aI3
aI1
aI0
aI1
aI1
aI1
aI2
aI8
aI0
aI0
aI4
aI1
aI1
aI1
aI2
aI7
aI1
aI3
aI4
aI4
aI0
aI10
aI2
aI4
aI2
aI0
aI4
aI3
aI1
aI2
aI3
aI0
aI0
aI0
aI3
aI10
aI6
aI4
aI3
aI1
aI0
aI22
aI0
aI2
aI2
aI1
aI6
aI3
aI6
aI2
aI1
aI0
aI14
aI4
aI0
aI1
aI1
aI7
aI6
aI4
aI4
aI0
aI8
aI1
aI0
aI3
aI5
aI0
aI3
aI2
aI1
aI2
aI0
aI3
aI1
aI0
aI1
aI1
aI3
aI3
aI1
aI2
aI8
aI4
aI1
aI1
aI5
aI1
aI3
aI6
aI3
aI3
aI1
aI3
aI0
aI4
aI4
aI7
aI0
aI3
aI0
aI1
aI1
aI5
aI5
aI1
aI7
aI0
aI4
aI5
aI1
aI4
aI4
aI0
aI4
aI1
aI1
aI4
aI1
aI2
aI0
aI1
aI6
aI3
aI1
aI4
aI0
aI2
aI2
aI1
aI0
aI7
aI0
aI20
aI1
aI3
aI1
aI0
aI2
aI5
aI1
aI1
aI19
aI4
aI1
aI3
aI2
aI3
aI5
aI4
aI5
aI6
aI0
aI2
aI4
aI0
aI8
aI0
aI3
aI7
aI1
aI8
aI2
aI2
aI1
aI0
aI2
aI15
aI3
aI1
aI4
aI0
aI0
aI0
aI1
aI2
aI0
aI4
aI5
aI1
aI2
aI2
aI0
aI1
aI3
aI1
aI0
aI2
aI1
aI0
aI0
aI0
aI3
aI4
aI0
aI4
aI2
aI1
aI2
aI4
aI0
aI3
aI2
aI2
aI4
aI0
aI0
aI5
aI0
aI1
aI5
aI0
aI1
aI0
aI0
aI5
aI1
aI2
aI1
aI2
aI5
aI3
aI2
aI11
aI6
aI5
aI3
aI2
aI3
aI2
aI2
aI4
aI6
aI1
aI0
aI8
aI4
aI4
aI1
aI5
aI8
aI6
aI2
aI3
aI1
aI1
aI6
aI0
aI2
aI1
aI2
aI0
aI2
aI9
aI5
aI2
aI6
aI3
aI4
aI0
aI0
aI2
aI4
aI0
aI1
aI9
aI3
aI0
aI2
aI3
aI8
aI0
aI3
aI4
aI6
aI2
aI6
aI4
aI1
aI5
aI8
aI4
aI0
aI3
aI2
aI5
aI3
aI2
aI0
aI1
aI1
aI1
aI1
aI8
aI7
aI2
aI0
aI2
aI1
aI0
aI5
aI2
aI4
aI6
aI4
aI4
aI2
aI6
aI4
aI1
aI7
aI4
aI12
aI3
aI1
aI6
aI2
aI2
aI0
aI5
aI1
aI0
aI3
aI1
aI9
aI1
aI4
aI0
aI7
aI7
aI11
aI1
aI2
aI2
aI1
aI2
aI7
aI4
aI0
aI5
aI2
aI3
aI1
aI5
aI6
aI0
aI2
aI1
aI7
aI35
aI4
aI1
aI3
aI1
aI4
aI2
aI1
aI1
aI9
aI3
aI3
aI5
aI9
aI1
aI1
aI2
aI9
aI4
aI7
aI2
aI2
aI6
aI5
aI2
aI4
aI5
aI1
aI10
aI1
aI17
aI0
aI4
aI3
aI0
aI4
aI8
aI2
aI7
aI2
aI0
aI18
aI3
aI7
aI9
aI0
aI1
aI7
aI4
aI8
aI2
aI6
aI4
aI4
aI3
aI4
aI5
aI0
aI2
aI12
aI0
aI0
aI4
aI2
aI1
aI2
aI4
aI5
aI1
aI11
aI0
aI1
aI2
aI18
aI1
aI12
aI2
aI3
aI3
aI4
aI5
aI1
aI8
aI0
aI9
aI6
aI2
aI5
aI1
aI3
aI3
aI4
aI4
aI4
aI9
aI3
aI7
aI2
aI7
aI0
aI6
aI11
aI1
aI3
aI3
aI0
aI7
aI1
aI1
aI4
aI3
aI3
aI5
aI5
aI4
aI8
aI0
aI0
aI1
aI5
aI3
aI2
aI3
aI7
aI2
aI5
aI0
aI2
aI5
aI7
aI2
aI2
aI1
aI2
aI1
aI0
aI5
aI2
aI14
aI0
aI2
aI1
aI0
aI5
aI7
aI2
aI1
aI3
aI0
aI2
aI10
aI1
aI4
aI3
aI1
aI2
aI2
aI5
aI6
aI2
aI4
aI4
aI1
aI3
aI1
aI1
aI2
aI2
aI1
aI3
aI2
aI7
aI7
aI15
aI3
aI4
aI0
aI5
aI1
aI4
aI7
aI3
aI0
aI3
aI5
aI4
aI5
aI1
aI5
aI0
aI0
aI3
aI2
aI2
aI1
aI4
aI4
aI3
aI19
aI7
aI4
aI1
aI10
aI7
aI2
aI2
aI3
aI0
aI5
aI11
aI3
aI3
aI0
aI1
aI11
aI2
aI2
aI8
aI0
aI3
aI7
aI3
aI3
aI0
aI4
aI3
aI0
aI7
aI3
aI9
aI2
aI1
aI0
aI1
aI1
aI2
aI3
aI5
aI3
aI8
aI2
aI4
aI2
aI3
aI3
aI2
aI1
aI6
aI0
aI2
aI9
aI2
aI1
aI4
aI2
aI5
aI9
aI1
aI10
aI6
aI1
aI16
aI6
aI5
aI0
aI4
aI2
aI2
aI3
aI2
aI0
aI2
aI3
aI1
aI2
aI7
aI3
aI3
aI1
aI4
aI3
aI3
aI7
aI6
aI2
aI0
aI14
aI8
aI3
aI3
aI12
aI3
aI2
aI4
aI3
aI4
aI14
aI10
aI8
aI3
aI0
aI5
aI6
aI7
aI3
aI2
aI0
aI0
aI4
aI0
aI0
aI0
aI4
aI4
aI1
aI1
aI2
aI4
aI6
aI1
aI5
aI4
aI4
aI0
aI2
aI2
aI4
aI7
aI0
aI3
aI5
aI9
aI8
aI1
aI6
aI2
aI2
aI5
aI0
aI2
aI9
aI12
aI0
aI2
aI3
aI5
aI10
aI3
aI6
aI1
aI1
aI6
aI1
aI1
aI8
aI2
aI6
aI1
aI7
aI3
aI0
aI0
aI0
aI1
aI10
aI2
aI9
aI1
aI4
aI3
aI7
aI3
aI2
aI1
aI3
aI5
aI1
aI0
aI1
aI5
aI4
aI3
aI7
aI3
aI0
aI9
aI6
aI3
aI3
aI5
aI5
aI3
aI5
aI5
aI0
aI2
aI3
aI3
aI0
aI4
aI3
aI3
aI0
aI4
aI5
aI1
aI3
aI0
aI1
aI4
aI2
aI4
aI1
aI3
aI3
aI9
aI1
aI2
aI0
aI6
aI7
aI5
aI2
aI5
aI4
aI2
aI6
aI1
aI8
aI3
aI3
aI1
aI4
aI3
aI1
aI12
aI5
aI1
aI5
aI2
aI6
aI9
aI7
aI0
aI3
aI0
aI2
aI3
aI2
aI1
aI0
aI2
aI1
aI5
aI0
aI9
aI6
aI2
aI6
aI1
aI4
aI1
aI12
aI2
aI4
aI2
aI2
aI6
aI1
aI7
aI3
aI0
aI2
aI1
aI4
aI4
aI7
aI5
aI2
aI3
aI6
aI1
aI3
aI1
aI1
aI0
aI5
aI7
aI1
aI0
aI5
aI3
aI0
aI1
aI0
aI4
aI1
aI4
aI13
aI4
aI1
aI3
aI1
aI15
aI32
aI5
aI1
aI5
aI5
aI0
aI1
aI8
aI5
aI2
aI1
aI5
aI1
aI4
aI0
aI3
aI10
aI8
aI2
aI6
aI1
aI3
aI0
aI6
aI0
aI4
aI4
aI3
aI4
aI3
aI4
aI3
aI4
aI0
aI3
aI3
aI3
aI3
aI4
aI4
aI2
aI5
aI7
aI6
aI5
aI0
aI4
aI13
aI7
aI9
aI1
aI1
aI2
aI5
aI3
aI3
aI3
aI2
aI3
aI3
aI0
aI7
aI0
aI8
aI3
aI0
aI1
aI0
aI1
aI13
aI0
aI0
aI7
aI5
aI3
aI1
aI0
aI1
aI1
aI0
aI0
aI3
aI1
aI0
aI5
aI4
aI3
aI6
aI13
aI0
aI10
aI2
aI5
aI1
aI2
aI3
aI5
aI0
aI1
aI2
aI4
aI9
aI1
aI2
aI1
aI8
aI1
aI4
aI7
aI4
aI3
aI4
aI3
aI1
aI0
aI0
aI1
aI0
aI2
aI0
aI0
aI4
aI2
aI2
aI5
aI2
aI2
aI3
aI4
aI4
aI3
aI12
aI6
aI2
aI3
aI3
aI5
aI3
aI1
aI4
aI5
aI8
aI10
aI4
aI4
aI0
aI0
aI6
aI2
aI5
aI6
aI1
aI8
aI2
aI2
aI3
aI1
aI4
aI4
aI7
aI0
aI6
aI3
aI1
aI6
aI4
aI5
aI1
aI0
aI0
aI9
aI1
aI7
aI1
aI2
aI5
aI2
aI1
aI1
aI4
aI1
aI24
aI5
aI6
aI4
aI6
aI4
aI0
aI3
aI4
aI2
aI0
aI4
aI5
aI4
aI2
aI1
aI0
aI1
aI0
aI2
aI1
aI2
aI11
aI4
aI12
aI0
aI7
aI3
aI2
aI0
aI1
aI3
aI1
aI2
aI2
aI8
aI3
aI2
aI2
aI3
aI1
aI2
aI3
aI5
aI2
aI1
aI0
aI1
aI1
aI0
aI5
aI7
aI6
aI3
aI2
aI0
aI10
aI0
aI1
aI2
aI2
aI6
aI10
aI5
aI0
aI3
aI7
aI5
aI1
aI4
aI5
aI5
aI3
aI2
aI5
aI5
aI10
aI3
aI5
aI5
aI1
aI3
aI7
aI3
aI1
aI2
aI1
aI0
aI3
aI4
aI5
aI7
aI6
aI5
aI1
aI7
aI4
aI2
aI3
aI4
aI7
aI22
aI0
aI3
aI4
aI3
aI3
aI8
aI0
aI0
aI5
aI3
aI5
aI4
aI10
aI0
aI2
aI1
aI2
aI5
aI2
aI0
aI1
aI1
aI1
aI2
aI2
aI0
aI0
aI2
aI1
aI1
aI5
aI1
aI5
aI3
aI5
aI1
aI3
aI20
aI3
aI7
aI0
aI7
aI0
aI0
aI0
aI0
aI3
aI5
aI4
aI2
aI2
aI1
aI1
aI1
aI1
aI4
aI1
aI1
aI1
aI7
aI4
aI4
aI2
aI5
aI3
aI1
aI5
aI5
aI10
aI4
aI7
aI7
aI4
aI1
aI1
aI1
aI9
aI3
aI5
aI10
aI13
aI5
aI2
aI4
aI4
aI0
aI2
aI0
aI2
aI3
aI0
aI7
aI2
aI3
aI1
aI1
aI3
aI6
aI2
aI3
aI4
aI0
aI6
aI3
aI0
aI1
aI3
aI2
aI0
aI4
aI4
aI5
aI0
aI1
aI7
aI5
aI0
aI1
aI0
aI2
aI0
aI3
aI7
aI7
aI2
aI3
aI1
aI4
aI2
aI0
aI6
aI4
aI0
aI2
aI8
aI8
aI2
aI0
aI2
aI1
aI3
aI9
aI1
aI3
aI3
aI3
aI1
aI4
aI0
aI2
aI4
aI2
aI3
aI3
aI6
aI0
aI6
aI1
aI2
aI2
aI7
aI7
aI7
aI1
aI3
aI6
aI0
aI8
aI2
aI3
aI9
aI1
aI6
aI1
aI1
aI3
aI2
aI1
aI4
aI1
aI2
aI1
aI4
aI3
aI2
aI7
aI2
aI9
aI1
aI3
aI1
aI0
aI5
aI10
aI6
aI4
aI0
aI3
aI8
aI4
aI1
aI3
aI5
aI6
aI6
aI4
aI1
aI6
aI1
aI8
aI0
aI2
aI5
aI5
aI7
aI3
aI1
aI7
aI6
aI8
aI4
aI0
aI7
aI0
aI2
aI7
aI7
aI1
aI1
aI0
aI0
aI6
aI2
aI4
aI1
aI1
aI11
aI0
aI5
aI3
aI10
aI5
aI0
aI3
aI1
aI1
aI0
aI2
aI4
aI5
aI0
aI0
aI3
aI5
aI6
aI2
aI1
aI1
aI1
aI3
aI2
aI1
aI3
aI0
aI1
aI5
aI3
aI1
aI6
aI2
aI7
aI1
aI0
aI0
aI0
aI7
aI1
aI1
aI0
aI2
aI1
aI3
aI2
aI0
aI2
aI0
aI1
aI2
aI2
aI9
aI3
aI0
aI6
aI12
aI2
aI4
aI0
aI5
aI3
aI0
aI4
aI1
aI6
aI5
aI10
aI2
aI0
aI2
aI6
aI0
aI4
aI2
aI0
aI7
aI0
aI9
aI11
aI38
aI4
aI2
aI1
aI3
aI1
aI2
aI1
aI3
aI2
aI1
aI7
aI1
aI1
aI6
aI6
aI9
aI4
aI2
aI2
aI3
aI3
aI0
aI13
aI7
aI7
aI9
aI1
aI5
aI0
aI4
aI2
aI3
aI6
aI8
aI3
aI6
aI6
aI1
aI0
aI1
aI9
aI5
aI2
aI1
aI4
aI1
aI0
aI7
aI1
aI1
aI0
aI0
aI0
aI6
aI2
aI0
aI0
aI0
aI0
aI9
aI3
aI2
aI7
aI0
aI8
aI1
aI3
aI8
aI5
aI1
aI1
aI4
aI0
aI1
aI1
aI1
aI2
aI0
aI12
aI3
aI1
aI2
aI31
aI10
aI5
aI2
aI3
aI2
aI4
aI1
aI6
aI1
aI5
aI2
aI4
aI4
aI3
aI2
aI0
aI8
aI0
aI2
aI6
aI3
aI1
aI2
aI1
aI0
aI4
aI3
aI1
aI6
aI2
aI2
aI2
aI5
aI2
aI2
aI7
aI7
aI2
aI8
aI3
aI1
aI6
aI3
aI1
aI1
aI1
aI1
aI8
aI2
aI6
aI6
aI2
aI9
aI4
aI1
aI5
aI0
aI4
aI7
aI2
aI2
aI2
aI6
aI5
aI1
aI2
aI2
aI0
aI8
aI1
aI2
aI4
aI12
aI2
aI5
aI14
aI6
aI2
aI1
aI0
aI3
aI0
aI4
aI3
aI4
aI0
aI5
aI1
aI4
aI0
aI11
aI6
aI0
aI4
aI2
aI0
aI10
aI0
aI8
aI2
aI0
aI1
aI1
aI0
aI7
aI7
aI4
aI2
aI1
aI1
aI1
aI14
aI18
aI1
aI10
aI1
aI1
aI3
aI6
aI1
aI1
aI4
aI9
aI8
aI3
aI3
aI2
aI5
aI8
aI3
aI8
aI5
aI1
aI2
aI4
aI3
aI0
aI3
aI0
aI3
aI3
aI2
aI1
aI2
aI2
aI5
aI1
aI1
aI1
aI2
aI1
aI11
aI10
aI4
aI7
aI5
aI3
aI2
aI1
aI0
aI2
aI3
aI5
aI7
aI3
aI2
aI7
aI4
aI1
aI0
aI7
aI9
aI4
aI3
aI9
aI2
aI7
aI5
aI0
aI1
aI2
aI6
aI9
aI4
aI2
aI1
aI1
aI3
aI0
aI3
aI3
aI9
aI2
aI5
aI7
aI0
aI0
aI4
aI6
aI8
aI5
aI5
aI2
aI7
aI5
aI1
aI1
aI1
aI5
aI2
aI0
aI3
aI1
aI5
aI6
aI3
aI0
aI3
aI13
aI4
aI0
aI1
aI5
aI0
aI4
aI2
aI14
aI1
aI0
aI4
aI2
aI0
aI2
aI7
aI5
aI7
aI3
aI3
aI0
aI4
aI0
aI1
aI5
aI1
aI3
aI1
aI3
aI4
aI5
aI0
aI5
aI4
aI0
aI4
aI3
aI1
aI5
aI4
aI10
aI4
aI0
aI0
aI2
aI11
aI0
aI7
aI0
aI3
aI4
aI4
aI6
aI1
aI3
aI4
aI9
aI6
aI13
aI4
aI4
aI1
aI4
aI1
aI0
aI0
aI3
aI2
aI2
aI1
aI1
aI0
aI2
aI5
aI5
aI6
aI0
aI2
aI11
aI8
aI7
aI3
aI0
aI5
aI4
aI1
aI3
aI1
aI0
aI4
aI0
aI0
aI1
aI5
aI2
aI7
aI3
aI0
aI3
aI3
aI2
aI4
aI3
aI8
aI3
aI2
aI0
aI10
aI0
aI0
aI0
aI4
aI7
aI2
aI1
aI2
aI1
aI2
aI0
aI3
aI7
aI2
aI0
aI1
aI1
aI11
aI2
aI0
aI0
aI4
aI2
aI2
aI4
aI3
aI1
aI4
aI2
aI3
aI6
aI3
aI1
aI3
aI1
aI4
aI6
aI10
aI5
aI10
aI3
aI4
aI2
aI2
aI3
aI4
aI0
aI3
aI2
aI4
aI1
aI7
aI2
aI12
aI1
aI3
aI3
aI2
aI2
aI2
aI2
aI1
aI9
aI4
aI11
aI4
aI1
aI0
aI4
aI0
aI5
aI6
aI4
aI3
aI1
aI5
aI4
aI3
aI0
aI1
aI1
aI7
aI0
aI2
aI1
aI4
aI1
aI7
aI8
aI3
aI4
aI3
aI10
aI3
aI4
aI7
aI2
aI9
aI1
aI2
aI2
aI1
aI4
aI0
aI5
aI5
aI4
aI4
aI19
aI0
aI3
aI7
aI5
aI1
aI1
aI4
aI2
aI0
aI6
aI2
aI11
aI2
aI1
aI1
aI0
aI8
aI2
aI1
aI6
aI8
aI7
aI6
aI2
aI2
aI6
aI2
aI4
aI1
aI4
aI4
aI2
aI1
aI3
aI2
aI0
aI2
aI2
aI1
aI1
aI2
aI0
aI4
aI1
aI5
aI3
aI3
aI2
aI3
aI2
aI9
aI2
aI9
aI11
aI6
aI1
aI9
aI5
aI10
aI6
aI6
aI0
aI3
aI6
aI0
aI5
aI7
aI3
aI12
aI2
aI0
aI3
aI2
aI7
aI2
aI5
aI3
aI5
aI8
aI4
aI11
aI2
aI5
aI8
aI6
aI6
aI8
aI0
aI9
aI12
aI3
aI2
aI3
aI12
aI2
aI12
aI7
aI9
aI4
aI2
aI5
aI10
aI1
aI0
aI5
aI14
aI8
aI19
aI15
aI7
aI2
aI0
aI7
aI9
aI6
aI0
aI3
aI5
aI3
aI7
aI5
aI6
aI3
aI14
aI7
aI0
aI2
aI8
aI7
aI3
aI3
aI2
aI0
aI2
aI8
aI1
aI4
aI3
aI1
aI7
aI5
aI3
aI2
aI8
aI6
aI4
aI9
aI4
aI2
aI9
aI7
aI4
aI8
aI1
aI4
aI0
aI11
aI12
aI5
aI12
aI17
aI8
aI6
aI4
aI2
aI3
aI14
aI0
aI14
aI2
aI6
aI3
aI2
aI10
aI7
aI2
aI6
aI20
aI4
aI6
aI4
aI1
aI7
aI10
aI3
aI8
aI6
aI8
aI5
aI3
aI4
aI6
aI1
aI14
aI1
aI3
aI6
aI4
aI9
aI0
aI1
aI3
aI10
aI30
aI5
aI5
aI0
aI6
aI8
aI5
aI5
aI9
aI7
aI12
aI10
aI2
aI2
aI4
aI3
aI4
aI14
aI0
aI5
aI7
aI4
aI0
aI9
aI2
aI6
aI0
aI1
aI2
aI1
aI11
aI2
aI3
aI4
aI8
aI5
aI10
aI0
aI19
aI4
aI3
aI8
aI3
aI1
aI9
aI3
aI10
aI10
aI9
aI1
aI9
aI10
aI3
aI2
aI7
aI5
aI6
aI2
aI7
aI6
aI2
aI5
aI6
aI2
aI5
aI3
aI3
aI6
aI3
aI4
aI0
aI4
aI5
aI2
aI10
aI6
aI3
aI1
aI5
aI2
aI5
aI2
aI3
aI13
aI15
aI12
aI0
aI8
aI20
aI14
aI8
aI9
aI7
aI2
aI1
aI0
aI2
aI6
aI2
aI8
aI4
aI13
aI8
aI5
aI6
aI2
aI9
aI1
aI7
aI9
aI6
aI12
aI20
aI0
aI10
aI1
aI3
aI4
aI1
aI5
aI14
aI6
aI3
aI8
aI5
aI2
aI4
aI10
aI4
aI8
aI5
aI2
aI9
aI3
aI6
aI1
aI11
aI6
aI1
aI6
aI6
aI3
aI7
aI16
aI5
aI15
aI10
aI8
aI6
aI0
aI2
aI16
aI7
aI15
aI2
aI0
aI6
aI2
aI2
aI1
aI7
aI3
aI4
aI1
aI5
aI1
aI3
aI4
aI8
aI1
aI12
aI7
aI3
aI4
aI5
aI1
aI7
aI7
aI17
aI8
aI8
aI11
aI12
aI3
aI8
aI5
aI10
aI4
aI4
aI0
aI11
aI7
aI6
aI10
aI6
aI5
aI10
aI0
aI4
aI7
aI4
aI4
aI3
aI10
aI4
aI5
aI6
aI13
aI5
aI7
aI8
aI4
aI8
aI3
aI8
aI3
aI3
aI2
aI6
aI1
aI7
aI5
aI5
aI3
aI5
aI7
aI4
aI16
aI3
aI1
aI18
aI10
aI9
aI9
aI2
aI2
aI5
aI14
aI2
aI16
aI11
aI6
aI1
aI6
aI9
aI2
aI7
aI3
aI3
aI4
aI5
aI4
aI11
aI1
aI2
aI4
aI3
aI7
aI6
aI8
aI12
aI7
aI15
aI7
aI11
aI3
aI5
aI5
aI9
aI2
aI14
aI5
aI8
aI6
aI5
aI16
aI7
aI3
aI0
aI6
aI7
aI4
aI7
aI4
aI14
aI3
aI9
aI4
aI8
aI16
aI13
aI0
aI5
aI1
aI4
aI3
aI8
aI5
aI2
aI11
aI13
aI5
aI4
aI4
aI2
aI4
aI4
aI7
aI7
aI1
aI10
aI15
aI1
aI9
aI2
aI4
aI1
aI13
aI2
aI4
aI4
aI9
aI10
aI4
aI0
aI11
aI2
aI11
aI4
aI2
aI3
aI2
aI16
aI12
aI4
aI6
aI4
aI5
aI3
aI4
aI3
aI11
aI3
aI2
aI6
aI3
aI10
aI12
aI3
aI7
aI2
aI5
aI2
aI1
aI11
aI2
aI0
aI5
aI3
aI5
aI8
aI1
aI6
aI3
aI1
aI3
aI0
aI12
aI6
aI7
aI12
aI3
aI7
aI13
aI5
aI6
aI2
aI6
aI3
aI8
aI5
aI3
aI3
aI0
aI17
aI8
aI4
aI20
aI3
aI1
aI8
aI7
aI5
aI2
aI3
aI3
aI7
aI1
aI2
aI13
aI4
aI8
aI5
aI11
aI2
aI2
aI2
aI7
aI14
aI3
aI6
aI2
aI4
aI8
aI0
aI12
aI5
aI4
aI10
aI0
aI4
aI3
aI3
aI8
aI10
aI8
aI7
aI1
aI1
aI3
aI5
aI13
aI0
aI2
aI0
aI2
aI3
aI7
aI2
aI2
aI0
aI6
aI1
aI9
aI9
aI22
aI3
aI7
aI2
aI3
aI8
aI6
aI4
aI5
aI2
aI0
aI6
aI5
aI9
aI7
aI1
aI2
aI3
aI4
aI10
aI8
aI11
aI11
aI3
aI6
aI4
aI8
aI3
aI5
aI9
aI2
aI6
aI2
aI5
aI10
aI6
aI3
aI8
aI5
aI8
aI5
aI4
aI7
aI6
aI2
aI6
aI3
aI14
aI6
aI1
aI3
aI8
aI10
aI4
aI9
aI3
aI1
aI10
aI10
aI19
aI11
aI3
aI6
aI2
aI9
aI1
aI4
aI6
aI5
aI7
aI3
aI2
aI11
aI17
aI5
aI5
aI15
aI5
aI18
aI3
aI1
aI4
aI4
aI2
aI9
aI4
aI2
aI5
aI10
aI15
aI3
aI17
aI4
aI2
aI3
aI14
aI0
aI5
aI4
aI2
aI5
aI2
aI5
aI3
aI7
aI17
aI9
aI7
aI1
aI2
aI5
aI8
aI9
aI2
aI2
aI7
aI2
aI5
aI4
aI5
aI4
aI1
aI2
aI8
aI13
aI2
aI0
aI7
aI2
aI0
aI6
aI19
aI5
aI10
aI9
aI7
aI4
aI3
aI2
aI13
aI6
aI4
aI5
aI3
aI3
aI9
aI5
aI2
aI9
aI14
aI2
aI12
aI7
aI6
aI14
aI7
aI17
aI15
aI7
aI27
aI6
aI4
aI4
aI8
aI5
aI6
aI6
aI1
aI6
aI8
aI5
aI2
aI7
aI3
aI4
aI8
aI1
aI2
aI1
aI3
aI13
aI1
aI3
aI5
aI9
aI1
aI2
aI8
aI1
aI2
aI6
aI0
aI5
aI8
aI8
aI11
aI14
aI5
aI6
aI8
aI3
aI2
aI4
aI3
aI5
aI16
aI3
aI8
aI11
aI4
aI8
aI2
aI4
aI6
aI4
aI3
aI8
aI2
aI4
aI1
aI3
aI3
aI5
aI4
aI12
aI10
aI2
aI2
aI1
aI4
aI12
aI2
aI4
aI10
aI9
aI8
aI8
aI4
aI4
aI2
aI7
aI4
aI5
aI4
aI4
aI3
aI2
aI4
aI15
aI8
aI4
aI11
aI5
aI6
aI5
aI11
aI0
aI4
aI8
aI1
aI0
aI4
aI1
aI2
aI14
aI7
aI14
aI11
aI9
aI3
aI1
aI5
aI5
aI2
aI7
aI7
aI4
aI2
aI10
aI2
aI6
aI3
aI13
aI9
aI6
aI9
aI1
aI7
aI6
aI3
aI9
aI12
aI3
aI4
aI6
aI3
aI11
aI3
aI2
aI3
aI2
aI0
aI4
aI6
aI7
aI3
aI1
aI0
aI1
aI3
aI7
aI11
aI5
aI4
aI2
aI8
aI14
aI3
aI3
aI6
aI10
aI15
aI1
aI4
aI2
aI8
aI5
aI4
aI2
aI4
aI2
aI8
aI4
aI0
aI15
aI7
aI5
aI5
aI5
aI2
aI7
aI17
aI2
aI1
aI4
aI4
aI4
aI3
aI8
aI6
aI6
aI4
aI8
aI5
aI3
aI8
aI4
aI7
aI0
aI15
aI3
aI4
aI3
aI0
aI8
aI7
aI8
aI7
aI8
aI5
aI5
aI8
aI5
aI5
aI4
aI12
aI10
aI4
aI7
aI6
aI5
aI2
aI15
aI0
aI6
aI5
aI4
aI3
aI4
aI13
aI3
aI0
aI4
aI6
aI10
aI1
aI13
aI8
aI2
aI7
aI8
aI3
aI2
aI2
aI4
aI2
aI11
aI5
aI3
aI13
aI3
aI1
aI11
aI6
aI13
aI6
aI11
aI0
aI2
aI3
aI3
aI15
aI4
aI9
aI1
aI1
aI2
aI7
aI3
aI5
aI5
aI4
aI12
aI2
aI12
aI1
aI22
aI6
aI12
aI2
aI2
aI5
aI6
aI1
aI15
aI4
aI2
aI16
aI1
aI11
aI6
aI4
aI4
aI3
aI4
aI9
aI7
aI11
aI8
aI4
aI0
aI1
aI1
aI2
aI2
aI5
aI3
aI5
aI4
aI10
aI11
aI5
aI0
aI3
aI12
aI4
aI3
aI1
aI5
aI4
aI8
aI1
aI2
aI9
aI11
aI12
aI7
aI0
aI1
aI3
aI2
aI4
aI6
aI5
aI13
aI3
aI17
aI0
aI2
aI3
aI4
aI0
aI5
aI2
aI2
aI8
aI8
aI1
aI0
aI7
aI16
aI5
aI12
aI6
aI0
aI3
aI5
aI1
aI0
aI3
aI2
aI10
aI5
aI17
aI0
aI12
aI4
aI4
aI3
aI6
aI4
aI3
aI8
aI13
aI8
aI0
aI2
aI5
aI3
aI4
aI8
aI14
aI5
aI2
aI12
aI16
aI6
aI9
aI4
aI6
aI14
aI1
aI10
aI5
aI4
aI8
aI13
aI8
aI2
aI13
aI3
aI7
aI3
aI3
aI6
aI1
aI8
aI17
aI3
aI9
aI3
aI2
aI5
aI2
aI6
aI9
aI6
aI3
aI8
aI4
aI4
aI9
aI3
aI3
aI7
aI1
aI5
aI14
aI8
aI3
aI1
aI8
aI0
aI4
aI11
aI1
aI7
aI5
aI6
aI11
aI0
aI4
aI8
aI2
aI5
aI1
aI2
aI6
aI5
aI0
aI7
aI13
aI3
aI7
aI2
aI3
aI6
aI4
aI3
aI6
aI9
aI3
aI10
aI6
aI2
aI5
aI15
aI2
aI10
aI1
aI5
aI6
aI5
aI2
aI6
aI16
aI4
aI3
aI0
aI5
aI4
aI1
aI1
aI4
aI1
aI4
aI6
aI2
aI6
aI3
aI23
aI3
aI4
aI0
aI9
aI15
aI4
aI5
aI4
aI3
aI5
aI4
aI8
aI2
aI19
aI13
aI12
aI1
aI15
aI3
aI3
aI3
aI1
aI2
aI8
aI5
aI3
aI2
aI2
aI6
aI2
aI6
aI7
aI4
aI1
aI10
aI4
aI1
aI1
aI12
aI5
aI3
aI2
aI7
aI1
aI1
aI0
aI3
aI7
aI4
aI1
aI6
aI7
aI12
aI8
aI1
aI2
aI7
aI5
aI2
aI3
aI3
aI14
aI7
aI3
aI4
aI3
aI2
aI1
aI15
aI0
aI7
aI14
aI9
aI6
aI8
aI8
aI7
aI7
aI2
aI4
aI5
aI1
aI5
aI4
aI7
aI6
aI0
aI2
aI1
aI2
aI3
aI3
aI5
aI10
aI1
aI3
aI9
aI0
aI3
aI0
aI3
aI8
aI21
aI7
aI13
aI3
aI3
aI18
aI7
aI2
aI14
aI10
aI3
aI4
aI4
aI3
aI0
aI3
aI6
aI9
aI1
aI6
aI2
aI14
aI7
aI2
aI0
aI28
aI8
aI1
aI7
aI4
aI3
aI3
aI7
aI3
aI4
aI9
aI4
aI6
aI3
aI0
aI5
aI4
aI4
aI6
aI3
aI1
aI5
aI3
aI7
aI4
aI5
aI2
aI8
aI1
aI3
aI2
aI18
aI3
aI8
aI25
aI5
aI5
aI6
aI4
aI3
aI3
aI6
aI3
aI6
aI3
aI20
aI1
aI18
aI8
aI4
aI5
aI8
aI10
aI2
aI4
aI1
aI6
aI4
aI11
aI1
aI13
aI1
aI4
aI1
aI1
aI5
aI3
aI1
aI10
aI2
aI5
aI2
aI5
aI4
aI4
aI1
aI4
aI15
aI0
aI7
aI8
aI4
aI17
aI15
aI0
aI9
aI8
aI4
aI9
aI1
aI0
aI10
aI3
aI5
aI3
aI3
aI0
aI12
aI7
aI2
aI5
aI6
aI4
aI2
aI8
aI1
aI1
aI0
aI3
aI2
aI7
aI12
aI9
aI3
aI10
aI6
aI12
aI1
aI3
aI4
aI5
aI5
aI13
aI2
aI6
aI1
aI2
aI15
aI3
aI2
aI13
aI8
aI2
aI1
aI4
aI7
aI10
aI8
aI4
aI5
aI7
aI2
aI9
aI4
aI12
aI7
aI1
aI13
aI5
aI2
aI0
aI4
aI2
aI7
aI1
aI5
aI5
aI4
aI6
aI3
aI2
aI12
aI8
aI2
aI8
aI3
aI4
aI6
aI6
aI1
aI0
aI3
aI4
aI8
aI1
aI14
aI4
aI0
aI4
aI1
aI4
aI1
aI4
aI9
aI10
aI10
aI7
aI4
aI6
aI3
aI7
aI9
aI4
aI3
aI18
aI9
aI9
aI1
aI12
aI2
aI12
aI0
aI24
aI3
aI6
aI10
aI8
aI6
aI11
aI0
aI3
aI6
aI3
aI5
aI15
aI3
aI8
aI5
aI16
aI14
aI8
aI13
aI1
aI5
aI6
aI2
aI4
aI11
aI2
aI7
aI5
aI5
aI9
aI1
aI6
aI8
aI4
aI6
aI1
aI11
aI9
aI5
aI5
aI1
aI9
aI1
aI3
aI7
aI1
aI1
aI13
aI1
aI3
aI21
aI7
aI9
aI8
aI0
aI3
aI10
aI10
aI7
aI2
aI2
aI10
aI2
aI2
aI15
aI3
aI5
aI6
aI2
aI7
aI3
aI9
aI1
aI9
aI8
aI6
aI4
aI7
aI8
aI3
aI5
aI7
aI1
aI7
aI21
aI4
aI2
aI12
aI5
aI6
aI2
aI3
aI6
aI6
aI4
aI4
aI8
aI7
aI5
aI0
aI5
aI2
aI7
aI2
aI2
aI4
aI7
aI10
aI12
aI16
aI5
aI22
aI4
aI7
aI2
aI6
aI9
aI12
aI5
aI4
aI14
aI9
aI3
aI14
aI14
aI18
aI3
aI7
aI2
aI7
aI7
aI5
aI24
aI9
aI7
aI4
aI2
aI3
aI5
aI2
aI5
aI6
aI0
aI11
aI5
aI1
aI5
aI16
aI1
aI11
aI2
aI15
aI8
aI21
aI6
aI3
aI21
aI12
aI1
aI16
aI12
aI4
aI3
aI3
aI6
aI9
aI1
aI3
aI6
aI0
aI4
aI2
aI4
aI3
aI2
aI1
aI8
aI3
aI8
aI5
aI17
aI5
aI2
aI1
aI2
aI5
aI0
aI2
aI4
aI5
aI3
aI12
aI8
aI3
aI4
aI2
aI5
aI0
aI3
aI6
aI4
aI10
aI0
aI2
aI6
aI5
aI1
aI14
aI11
aI1
aI11
aI12
aI7
aI12
aI11
aI1
aI2
aI0
aI7
aI5
aI5
aI3
aI4
aI11
aI12
aI7
aI2
aI2
aI0
aI6
aI0
aI1
aI3
aI5
aI4
aI1
aI5
aI7
aI2
aI7
aI1
aI8
aI3
aI1
aI2
aI0
aI0
aI5
aI4
aI2
aI3
aI7
aI4
aI5
aI9
aI0
aI3
aI4
aI1
aI2
aI2
aI2
aI3
aI1
aI0
aI0
aI1
aI12
aI5
aI0
aI6
aI6
aI2
aI2
aI7
aI3
aI1
aI10
aI5
aI5
aI7
aI5
aI1
aI3
aI2
aI4
aI1
aI9
aI2
aI4
aI6
aI0
aI5
aI1
aI1
aI4
aI9
aI0
aI8
aI1
aI4
aI1
aI0
aI3
aI3
aI5
aI10
aI0
aI0
aI4
aI3
aI1
aI2
aI4
aI1
aI0
aI0
aI12
aI6
aI3
aI9
aI6
aI1
aI4
aI0
aI2
aI5
aI0
aI1
aI4
aI5
aI6
aI2
aI6
aI7
aI3
aI7
aI1
aI5
aI6
aI1
aI8
aI1
aI2
aI2
aI5
aI4
aI4
aI8
aI0
aI0
aI11
aI8
aI9
aI4
aI2
aI7
aI0
aI8
aI1
aI3
aI1
aI3
aI0
aI3
aI2
aI1
aI15
aI4
aI2
aI7
aI7
aI6
aI3
aI6
aI2
aI5
aI5
aI0
aI1
aI6
aI1
aI7
aI2
aI1
aI1
aI1
aI3
aI1
aI4
aI3
aI1
aI3
aI2
aI3
aI2
aI15
aI1
aI6
aI2
aI3
aI3
aI0
aI15
aI3
aI2
aI2
aI0
aI1
aI1
aI0
aI7
aI5
aI4
aI10
aI1
aI3
aI2
aI4
aI1
aI1
aI2
aI5
aI2
aI4
aI2
aI4
aI3
aI6
aI0
aI4
aI0
aI7
aI3
aI4
aI6
aI3
aI2
aI4
aI4
aI3
aI6
aI16
aI3
aI3
aI3
aI4
aI0
aI1
aI2
aI5
aI17
aI0
aI6
aI4
aI1
aI6
aI0
aI0
aI1
aI3
aI4
aI3
aI1
aI1
aI3
aI3
aI4
aI1
aI8
aI0
aI3
aI3
aI8
aI5
aI8
aI0
aI12
aI0
aI5
aI2
aI2
aI2
aI4
aI1
aI3
aI3
aI3
aI0
aI6
aI3
aI0
aI1
aI4
aI4
aI6
aI0
aI11
aI10
aI1
aI11
aI1
aI3
aI0
aI0
aI0
aI1
aI4
aI4
aI0
aI1
aI4
aI0
aI2
aI1
aI4
aI9
aI1
aI3
aI6
aI5
aI4
aI4
aI13
aI3
aI2
aI2
aI13
aI4
aI8
aI1
aI10
aI5
aI2
aI2
aI10
aI0
aI4
aI3
aI2
aI0
aI7
aI3
aI5
aI8
aI10
aI2
aI1
aI7
aI8
aI2
aI2
aI2
aI1
aI5
aI1
aI5
aI4
aI7
aI7
aI4
aI5
aI1
aI1
aI4
aI7
aI12
aI1
aI1
aI4
aI3
aI0
aI4
aI1
aI8
aI2
aI2
aI2
aI0
aI5
aI5
aI1
aI1
aI0
aI2
aI1
aI0
aI4
aI0
aI7
aI10
aI8
aI3
aI2
aI0
aI11
aI5
aI3
aI1
aI4
aI4
aI4
aI5
aI4
aI0
aI3
aI0
aI4
aI2
aI2
aI3
aI7
aI6
aI1
aI1
aI2
aI2
aI9
aI3
aI0
aI1
aI2
aI3
aI3
aI2
aI8
aI1
aI0
aI1
aI15
aI5
aI1
aI0
aI0
aI3
aI2
aI9
aI1
aI2
aI1
aI0
aI5
aI2
aI2
aI5
aI2
aI3
aI3
aI6
aI6
aI2
aI4
aI3
aI1
aI5
aI3
aI3
aI3
aI8
aI2
aI1
aI1
aI7
aI0
aI5
aI2
aI3
aI1
aI4
aI1
aI0
aI1
aI11
aI0
aI3
aI8
aI5
aI10
aI0
aI16
aI6
aI1
aI1
aI6
aI13
aI3
aI2
aI2
aI2
aI3
aI2
aI2
aI2
aI2
aI1
aI11
aI0
aI6
aI4
aI1
aI10
aI1
aI2
aI1
aI1
aI3
aI0
aI5
aI1
aI13
aI15
aI1
aI6
aI1
aI5
aI8
aI6
aI0
aI4
aI1
aI6
aI3
aI4
aI4
aI2
aI3
aI3
aI0
aI4
aI8
aI0
aI1
aI2
aI2
aI1
aI1
aI5
aI0
aI3
aI2
aI1
aI2
aI7
aI5
aI8
aI2
aI3
aI3
aI3
aI0
aI1
aI1
aI3
aI0
aI2
aI4
aI20
aI2
aI1
aI3
aI9
aI6
aI2
aI3
aI1
aI0
aI10
aI3
aI3
aI0
aI2
aI2
aI1
aI1
aI5
aI3
aI6
aI7
aI6
aI7
aI5
aI6
aI2
aI3
aI7
aI4
aI4
aI9
aI7
aI8
aI9
aI2
aI0
aI4
aI2
aI6
aI9
aI10
aI3
aI1
aI3
aI4
aI0
aI3
aI0
aI7
aI0
aI4
aI9
aI0
aI0
aI3
aI1
aI1
aI2
aI3
aI6
aI3
aI2
aI1
aI7
aI0
aI0
aI6
aI2
aI1
aI2
aI8
aI9
aI2
aI0
aI6
aI8
aI1
aI1
aI4
aI2
aI4
aI2
aI5
aI1
aI4
aI4
aI0
aI3
aI0
aI1
aI3
aI1
aI6
aI3
aI4
aI5
aI2
aI8
aI0
aI4
aI0
aI1
aI0
aI1
aI4
aI5
aI0
aI2
aI2
aI0
aI4
aI10
aI0
aI9
aI6
aI0
aI2
aI5
aI2
aI0
aI4
aI2
aI0
aI3
aI3
aI7
aI8
aI1
aI11
aI8
aI3
aI4
aI13
aI3
aI8
aI1
aI4
aI1
aI4
aI0
aI3
aI3
aI0
aI7
aI3
aI4
aI5
aI8
aI0
aI2
aI2
aI5
aI2
aI4
aI3
aI6
aI8
aI8
aI5
aI0
aI0
aI4
aI2
aI1
aI3
aI3
aI11
aI0
aI4
aI12
aI5
aI3
aI5
aI3
aI3
aI2
aI3
aI2
aI3
aI6
aI5
aI1
aI10
aI3
aI5
aI2
aI1
aI4
aI3
aI7
aI5
aI4
aI0
aI3
aI0
aI3
aI5
aI2
aI1
aI4
aI4
aI3
aI9
aI0
aI3
aI0
aI1
aI3
aI2
aI8
aI4
aI4
aI3
aI6
aI4
aI6
aI0
aI3
aI2
aI3
aI4
aI9
aI1
aI0
aI1
aI3
aI1
aI7
aI2
aI0
aI4
aI0
aI2
aI8
aI3
aI0
aI5
aI0
aI19
aI2
aI3
aI5
aI0
aI2
aI1
aI10
aI0
aI1
aI3
aI1
aI2
aI1
aI6
aI3
aI6
aI5
aI4
aI3
aI4
aI3
aI5
aI7
aI5
aI2
aI3
aI1
aI4
aI14
aI3
aI11
aI3
aI1
aI4
aI5
aI14
aI12
aI3
aI2
aI3
aI1
aI0
aI5
aI5
aI2
aI1
aI4
aI7
aI5
aI3
aI1
aI5
aI15
aI2
aI1
aI2
aI0
aI1
aI11
aI0
aI0
aI1
aI2
aI8
aI1
aI2
aI4
aI2
aI2
aI1
aI6
aI1
aI1
aI2
aI3
aI6
aI5
aI6
aI1
aI2
aI4
aI3
aI2
aI14
aI3
aI6
aI0
aI1
aI4
aI8
aI12
aI4
aI1
aI3
aI7
aI7
aI1
aI1
aI11
aI2
aI2
aI3
aI6
aI1
aI3
aI1
aI0
aI2
aI0
aI10
aI1
aI10
aI1
aI4
aI2
aI4
aI7
aI8
aI7
aI0
aI16
aI1
aI3
aI5
aI1
aI11
aI2
aI0
aI5
aI2
aI7
aI8
aI1
aI3
aI1
aI0
aI3
aI1
aI3
aI1
aI7
aI7
aI1
aI3
aI2
aI0
aI1
aI3
aI0
aI1
aI2
aI4
aI3
aI2
aI3
aI1
aI3
aI4
aI0
aI2
aI6
aI3
aI6
aI3
aI1
aI2
aI1
aI4
aI6
aI2
aI5
aI4
aI1
aI4
aI2
aI4
aI0
aI7
aI1
aI4
aI4
aI3
aI0
aI8
aI6
aI8
aI3
aI4
aI0
aI9
aI8
aI4
aI2
aI3
aI5
aI5
aI3
aI2
aI2
aI3
aI2
aI2
aI0
aI4
aI5
aI4
aI16
aI0
aI0
aI3
aI3
aI3
aI4
aI3
aI3
aI7
aI6
aI1
aI3
aI0
aI7
aI1
aI2
aI1
aI1
aI1
aI3
aI2
aI3
aI2
aI2
aI4
aI1
aI8
aI6
aI2
aI9
aI12
aI0
aI8
aI0
aI1
aI3
aI2
aI0
aI1
aI1
aI0
aI5
aI4
aI9
aI1
aI2
aI3
aI2
aI1
aI4
aI0
aI3
aI5
aI7
aI5
aI7
aI1
aI4
aI0
aI5
aI2
aI0
aI0
aI0
aI1
aI4
aI1
aI3
aI4
aI0
aI8
aI2
aI3
aI7
aI4
aI1
aI4
aI1
aI11
aI8
aI8
aI11
aI4
aI1
aI6
aI2
aI5
aI9
aI4
aI3
aI8
aI3
aI2
aI2
aI3
aI5
aI2
aI7
aI4
aI2
aI2
aI2
aI2
aI0
aI1
aI6
aI1
aI6
aI3
aI1
aI2
aI12
aI1
aI6
aI0
aI2
aI5
aI3
aI6
aI3
aI3
aI4
aI4
aI5
aI2
aI4
aI6
aI9
aI3
aI0
aI0
aI9
aI2
aI6
aI2
aI6
aI4
aI8
aI4
aI0
aI13
aI1
aI0
aI0
aI2
aI5
aI1
aI4
aI2
aI2
aI2
aI0
aI0
aI0
aI11
aI6
aI4
aI2
aI5
aI0
aI4
aI0
aI7
aI5
aI5
aI8
aI2
aI6
aI2
aI4
aI4
aI3
aI3
aI4
aI7
aI7
aI6
aI1
aI5
aI3
aI1
aI2
aI4
aI0
aI5
aI3
aI1
aI1
aI3
aI0
aI3
aI5
aI5
aI5
aI7
aI3
aI3
aI9
aI10
aI4
aI2
aI6
aI4
aI1
aI1
aI2
aI1
aI4
aI1
aI11
aI0
aI3
aI1
aI11
aI1
aI1
aI3
aI3
aI2
aI1
aI3
aI2
aI4
aI0
aI3
aI0
aI1
aI0
aI2
aI8
aI5
aI2
aI4
aI4
aI5
aI1
aI1
aI0
aI6
aI4
aI1
aI2
aI7
aI13
aI7
aI2
aI1
aI1
aI0
aI2
aI2
aI0
aI6
aI4
aI4
aI6
aI5
aI1
aI1
aI14
aI1
aI2
aI0
aI2
aI7
aI6
aI3
aI1
aI2
aI3
aI5
aI2
aI7
aI10
aI2
aI2
aI2
aI0
aI1
aI0
aI3
aI2
aI3
aI2
aI8
aI1
aI8
aI2
aI0
aI4
aI2
aI6
aI1
aI2
aI5
aI2
aI3
aI3
aI3
aI4
aI3
aI2
aI7
aI2
aI0
aI4
aI3
aI5
aI0
aI1
aI2
aI4
aI7
aI7
aI2
aI2
aI0
aI6
aI0
aI5
aI10
aI3
aI4
aI3
aI3
aI2
aI8
aI3
aI3
aI4
aI3
aI3
aI4
aI1
aI3
aI0
aI0
aI13
aI0
aI3
aI3
aI4
aI4
aI1
aI5
aI2
aI4
aI3
aI2
aI4
aI1
aI0
aI2
aI0
aI3
aI0
aI3
aI4
aI4
aI2
aI0
aI2
aI8
aI3
aI2
aI6
aI2
aI6
aI1
aI15
aI0
aI1
aI3
aI1
aI11
aI9
aI6
aI3
aI2
aI2
aI3
aI2
aI0
aI5
aI1
aI13
aI2
aI5
aI13
aI1
aI1
aI0
aI10
aI1
aI2
aI0
aI2
aI6
aI1
aI7
aI2
aI3
aI2
aI5
aI2
aI2
aI1
aI2
aI0
aI12
aI2
aI3
aI2
aI0
aI3
aI10
aI12
aI2
aI0
aI0
aI2
aI2
aI3
aI4
aI7
aI4
aI3
aI0
aI4
aI4
aI1
aI11
aI3
aI0
aI3
aI8
aI0
aI3
aI3
aI3
aI5
aI3
aI3
aI6
aI4
aI0
aI2
aI4
aI1
aI2
aI1
aI6
aI0
aI3
aI0
aI4
aI9
aI12
aI2
aI7
aI5
aI5
aI11
aI2
aI2
aI1
aI1
aI5
aI2
aI1
aI6
aI0
aI11
aI0
aI0
aI2
aI2
aI3
aI1
aI4
aI5
aI3
aI2
aI10
aI8
aI5
aI7
aI9
aI1
aI5
aI2
aI8
aI5
aI4
aI2
aI0
aI2
aI3
aI0
aI0
aI0
aI0
aI1
aI2
aI1
aI1
aI1
aI1
aI6
aI2
aI3
aI8
aI5
aI6
aI3
aI0
aI4
aI2
aI0
aI3
aI4
aI18
aI10
aI3
aI12
aI0
aI1
aI2
aI1
aI1
aI1
aI2
aI5
aI12
aI4
aI2
aI2
aI5
aI1
aI9
aI2
aI10
aI3
aI5
aI4
aI2
aI0
aI2
aI6
aI6
aI4
aI0
aI2
aI3
aI0
aI2
aI3
aI5
aI0
aI1
aI1
aI14
aI4
aI4
aI2
aI1
aI3
aI7
aI1
aI0
aI1
aI5
aI6
aI0
aI7
aI6
aI4
aI4
aI5
aI1
aI2
aI0
aI3
aI2
aI1
aI2
aI2
aI1
aI0
aI2
aI13
aI5
aI0
aI3
aI3
aI4
aI2
aI2
aI2
aI10
aI5
aI10
aI2
aI5
aI0
aI8
aI4
aI2
aI3
aI1
aI0
aI2
aI2
aI6
aI1
aI5
aI5
aI9
aI1
aI8
aI1
aI0
aI9
aI13
aI4
aI4
aI2
aI4
aI0
aI3
aI1
aI6
aI2
aI3
aI2
aI0
aI4
aI4
aI0
aI5
aI4
aI1
aI6
aI0
aI1
aI1
aI7
aI0
aI2
aI2
aI5
aI8
aI1
aI4
aI5
aI1
aI2
aI2
aI4
aI9
aI2
aI6
aI9
aI6
aI7
aI3
aI6
aI1
aI1
aI5
aI5
aI0
aI3
aI0
aI6
aI9
aI5
aI0
aI4
aI5
aI7
aI1
aI6
aI0
aI9
aI8
aI2
aI2
aI3
aI5
aI2
aI1
aI6
aI1
aI5
aI5
aI8
aI8
aI3
aI0
aI2
aI2
aI7
aI4
aI2
aI2
aI5
aI5
aI2
aI2
aI3
aI1
aI4
aI2
aI4
aI5
aI3
aI1
aI5
aI4
aI1
aI9
aI3
aI1
aI1
aI10
aI4
aI0
aI1
aI2
aI1
aI1
aI3
aI1
aI7
aI0
aI1
aI2
aI8
aI3
aI4
aI2
aI0
aI4
aI0
aI4
aI1
aI5
aI1
aI7
aI2
aI4
aI5
aI4
aI5
aI3
aI3
aI6
aI6
aI5
aI1
aI1
aI5
aI3
aI2
aI6
aI3
aI3
aI2
aI3
aI1
aI4
aI3
aI2
aI4
aI7
aI1
aI2
aI1
aI4
aI10
aI2
aI7
aI2
aI3
aI6
aI4
aI2
aI4
aI4
aI4
aI3
aI0
aI4
aI3
aI7
aI2
aI22
aI1
aI1
aI5
aI9
aI2
aI5
aI4
aI6
aI3
aI2
aI7
aI9
aI0
aI2
aI3
aI3
aI0
aI3
aI0
aI2
aI12
aI0
aI1
aI1
aI3
aI5
aI9
aI9
aI8
aI5
aI43
aI8
aI16
aI10
aI3
aI11
aI11
aI20
aI8
aI12
aI18
aI27
aI15
aI11
aI5
aI6
aI2
aI13
aI9
aI3
aI10
aI2
aI10
aI62
aI8
aI29
aI5
aI20
aI61
aI13
aI4
aI16
aI4
aI14
aI10
aI10
aI2
aI8
aI6
aI15
aI37
aI4
aI2
aI12
aI9
aI13
aI5
aI5
aI10
aI11
aI2
aI49
aI10
aI6
aI48
aI8
aI4
aI6
aI9
aI8
aI3
aI39
aI5
aI2
aI10
aI22
aI28
aI8
aI1
aI3
aI8
aI2
aI6
aI3
aI10
aI30
aI5
aI9
aI46
aI12
aI23
aI6
aI3
aI12
aI20
aI5
aI6
aI5
aI4
aI13
aI7
aI10
aI6
aI8
aI13
aI15
aI11
aI4
aI42
aI8
aI3
aI6
aI5
aI8
aI8
aI16
aI4
aI1
aI19
aI6
aI60
aI22
aI3
aI10
aI55
aI20
aI14
aI3
aI37
aI8
aI9
aI14
aI4
aI1
aI5
aI7
aI18
aI6
aI5
aI2
aI7
aI9
aI10
aI6
aI11
aI3
aI7
aI8
aI1
aI7
aI5
aI12
aI6
aI16
aI7
aI6
aI8
aI28
aI8
aI1
aI6
aI59
aI16
aI8
aI16
aI53
aI12
aI6
aI13
aI4
aI7
aI9
aI18
aI19
aI1
aI8
aI10
aI8
aI6
aI4
aI4
aI12
aI5
aI7
aI6
aI3
aI3
aI2
aI12
aI8
aI8
aI6
aI25
aI20
aI9
aI6
aI19
aI7
aI16
aI14
aI24
aI28
aI13
aI50
aI9
aI2
aI8
aI17
aI4
aI10
aI11
aI29
aI54
aI11
aI4
aI13
aI10
aI18
aI38
aI32
aI21
aI13
aI15
aI31
aI19
aI10
aI2
aI16
aI10
aI8
aI10
aI2
aI10
aI18
aI7
aI6
aI10
aI9
aI1
aI3
aI18
aI17
aI48
aI19
aI1
aI39
aI10
aI23
aI21
aI20
aI0
aI29
aI13
aI16
aI7
aI5
aI6
aI11
aI11
aI6
aI10
aI21
aI21
aI3
aI15
aI1
aI11
aI6
aI5
aI4
aI2
aI5
aI1
aI0
aI18
aI60
aI7
aI32
aI36
aI3
aI5
aI40
aI13
aI17
aI1
aI5
aI3
aI2
aI16
aI8
aI14
aI9
aI13
aI16
aI23
aI6
aI5
aI21
aI27
aI2
aI10
aI13
aI7
aI25
aI9
aI3
aI54
aI74
aI4
aI12
aI16
aI12
aI6
aI15
aI7
aI4
aI8
aI6
aI30
aI9
aI8
aI5
aI19
aI7
aI13
aI16
aI6
aI6
aI16
aI7
aI22
aI23
aI2
aI14
aI14
aI63
aI4
aI14
aI12
aI15
aI3
aI7
aI5
aI4
aI4
aI19
aI10
aI0
aI21
aI6
aI26
aI6
aI8
aI3
aI50
aI35
aI6
aI12
aI7
aI27
aI45
aI8
aI7
aI3
aI3
aI25
aI2
aI3
aI13
aI2
aI2
aI21
aI11
aI3
aI12
aI23
aI11
aI21
aI4
aI7
aI7
aI36
aI18
aI5
aI3
aI13
aI74
aI8
aI4
aI27
aI8
aI16
aI2
aI5
aI3
aI16
aI15
aI2
aI54
aI6
aI10
aI1
aI9
aI6
aI22
aI2
aI12
aI9
aI2
aI11
aI10
aI9
aI24
aI4
aI11
aI1
aI1
aI13
aI0
aI2
aI33
aI8
aI5
aI1
aI39
aI8
aI2
aI13
aI12
aI8
aI15
aI7
aI4
aI27
aI4
aI36
aI9
aI6
aI35
aI1
aI5
aI17
aI25
aI10
aI0
aI13
aI15
aI4
aI4
aI43
aI10
aI12
aI11
aI12
aI7
aI10
aI11
aI10
aI8
aI10
aI14
aI3
aI21
aI9
aI1
aI0
aI11
aI12
aI1
aI12
aI2
aI3
aI16
aI9
aI8
aI5
aI49
aI14
aI4
aI2
aI7
aI2
aI22
aI15
aI10
aI9
aI2
aI0
aI8
aI29
aI15
aI16
aI0
aI7
aI8
aI1
aI1
aI43
aI4
aI39
aI19
aI26
aI7
aI25
aI3
aI2
aI28
aI17
aI13
aI9
aI12
aI12
aI7
aI2
aI4
aI28
aI29
aI9
aI1
aI1
aI4
aI17
aI1
aI20
aI6
aI10
aI3
aI28
aI3
aI8
aI15
aI2
aI1
aI3
aI16
aI7
aI10
aI5
aI19
aI13
aI21
aI7
aI28
aI1
aI8
aI0
aI1
aI6
aI21
aI8
aI5
aI12
aI10
aI5
aI3
aI12
aI7
aI29
aI10
aI8
aI15
aI25
aI16
aI9
aI28
aI20
aI7
aI13
aI13
aI11
aI11
aI42
aI11
aI5
aI19
aI2
aI1
aI11
aI4
aI8
aI7
aI6
aI4
aI7
aI3
aI17
aI11
aI8
aI28
aI15
aI30
aI7
aI5
aI7
aI6
aI1
aI4
aI1
aI8
aI8
aI0
aI29
aI1
aI8
aI4
aI3
aI14
aI1
aI16
aI4
aI7
aI8
aI3
aI8
aI11
aI10
aI18
aI13
aI7
aI42
aI5
aI6
aI5
aI4
aI22
aI1
aI25
aI3
aI5
aI10
aI2
aI5
aI33
aI11
aI4
aI10
aI2
aI8
aI9
aI10
aI8
aI4
aI3
aI24
aI53
aI6
aI10
aI5
aI15
aI12
aI15
aI16
aI9
aI3
aI95
aI21
aI8
aI63
aI0
aI13
aI20
aI7
aI2
aI27
aI14
aI15
aI3
aI9
aI7
aI18
aI10
aI5
aI4
aI20
aI24
aI16
aI35
aI12
aI35
aI7
aI4
aI11
aI10
aI5
aI7
aI7
aI11
aI25
aI2
aI9
aI9
aI11
aI10
aI44
aI1
aI7
aI4
aI5
aI1
aI4
aI5
aI59
aI14
aI8
aI12
aI12
aI0
aI8
aI5
aI6
aI4
aI7
aI5
aI16
aI23
aI16
aI1
aI1
aI4
aI12
aI10
aI11
aI18
aI11
aI12
aI12
aI21
aI6
aI4
aI14
aI7
aI11
aI26
aI23
aI25
aI27
aI9
aI3
aI8
aI12
aI53
aI7
aI7
aI14
aI12
aI7
aI9
aI17
aI21
aI28
aI27
aI3
aI5
aI15
aI30
aI18
aI17
aI19
aI10
aI7
aI0
aI22
aI47
aI7
aI7
aI3
aI22
aI5
aI2
aI4
aI3
aI2
aI28
aI6
aI37
aI23
aI9
aI5
aI18
aI12
aI3
aI18
aI17
aI6
aI10
aI14
aI41
aI0
aI4
aI10
aI3
aI26
aI13
aI66
aI4
aI2
aI3
aI7
aI7
aI31
aI1
aI36
aI6
aI29
aI8
aI7
aI22
aI3
aI13
aI45
aI4
aI5
aI6
aI7
aI3
aI27
aI14
aI2
aI15
aI13
aI17
aI0
aI38
aI12
aI3
aI14
aI7
aI4
aI18
aI13
aI6
aI3
aI53
aI4
aI52
aI4
aI1
aI8
aI34
aI4
aI19
aI23
aI1
aI3
aI3
aI14
aI18
aI3
aI10
aI18
aI8
aI12
aI11
aI12
aI20
aI16
aI8
aI7
aI3
aI18
aI19
aI17
aI5
aI13
aI12
aI16
aI23
aI1
aI14
aI4
aI2
aI31
aI30
aI13
aI7
aI11
aI4
aI1
aI14
aI9
aI1
aI6
aI42
aI8
aI10
aI0
aI22
aI3
aI12
aI13
aI18
aI21
aI5
aI12
aI19
aI2
aI1
aI5
aI13
aI28
aI29
aI8
aI7
aI19
aI8
aI37
aI14
aI13
aI5
aI19
aI23
aI11
aI4
aI52
aI21
aI5
aI3
aI6
aI13
aI7
aI50
aI10
aI14
aI9
aI6
aI9
aI47
aI7
aI1
aI26
aI20
aI12
aI24
aI4
aI5
aI32
aI5
aI1
aI23
aI16
aI9
aI0
aI0
aI19
aI10
aI14
aI11
aI5
aI6
aI1
aI7
aI0
aI23
aI15
aI3
aI33
aI43
aI0
aI12
aI8
aI9
aI16
aI36
aI10
aI5
aI17
aI8
aI3
aI6
aI30
aI7
aI3
aI20
aI11
aI7
aI5
aI3
aI4
aI7
aI32
aI10
aI9
aI19
aI15
aI0
aI7
aI7
aI19
aI1
aI3
aI22
aI7
aI12
aI24
aI8
aI2
aI15
aI21
aI6
aI3
aI3
aI6
aI19
aI1
aI6
aI12
aI8
aI15
aI4
aI26
aI5
aI25
aI23
aI6
aI4
aI20
aI3
aI10
aI9
aI12
aI1
aI8
aI52
aI2
aI11
aI24
aI19
aI21
aI4
aI26
aI27
aI3
aI4
aI1
aI1
aI36
aI9
aI9
aI15
aI10
aI3
aI17
aI13
aI21
aI1
aI18
aI6
aI13
aI13
aI7
aI14
aI21
aI8
aI2
aI9
aI11
aI1
aI33
aI20
aI13
aI7
aI12
aI15
aI4
aI3
aI20
aI13
aI14
aI21
aI0
aI3
aI1
aI19
aI5
aI3
aI10
aI4
aI4
aI37
aI3
aI7
aI13
aI11
aI7
aI21
aI20
aI18
aI2
aI8
aI13
aI4
aI25
aI11
aI16
aI21
aI21
aI3
aI10
aI18
aI3
aI3
aI23
aI11
aI16
aI12
aI8
aI12
aI10
aI7
aI6
aI16
aI12
aI4
aI5
aI4
aI2
aI7
aI23
aI7
aI0
aI2
aI9
aI13
aI8
aI15
aI4
aI12
aI21
aI8
aI8
aI21
aI3
aI5
aI27
aI3
aI1
aI23
aI6
aI4
aI9
aI2
aI5
aI4
aI6
aI14
aI20
aI14
aI7
aI7
aI28
aI8
aI2
aI12
aI5
aI1
aI5
aI9
aI25
aI24
aI6
aI23
aI14
aI10
aI10
aI7
aI11
aI3
aI36
aI9
aI2
aI4
aI9
aI8
aI0
aI5
aI10
aI6
aI5
aI31
aI5
aI2
aI9
aI27
aI3
aI22
aI7
aI2
aI4
aI3
aI52
aI4
aI34
aI5
aI20
aI1
aI15
aI9
aI5
aI7
aI39
aI12
aI15
aI3
aI10
aI9
aI4
aI16
aI13
aI12
aI2
aI9
aI2
aI22
aI16
aI32
aI3
aI13
aI3
aI4
aI29
aI3
aI1
aI3
aI1
aI8
aI10
aI5
aI28
aI2
aI45
aI5
aI11
aI11
aI19
aI22
aI13
aI35
aI11
aI6
aI4
aI37
aI14
aI10
aI8
aI8
aI3
aI31
aI4
aI10
aI15
aI50
aI16
aI1
aI14
aI31
aI3
aI14
aI1
aI11
aI20
aI13
aI20
aI11
aI5
aI7
aI5
aI12
aI32
aI9
aI11
aI21
aI4
aI15
aI7
aI6
aI26
aI8
aI13
aI15
aI25
aI21
aI8
aI6
aI18
aI6
aI9
aI2
aI10
aI9
aI11
aI9
aI12
aI23
aI5
aI10
aI4
aI6
aI27
aI33
aI4
aI4
aI11
aI18
aI53
aI11
aI24
aI23
aI3
aI13
aI5
aI20
aI3
aI5
aI43
aI5
aI11
aI4
aI14
aI7
aI25
aI5
aI8
aI18
aI13
aI21
aI5
aI8
aI11
aI7
aI4
aI22
aI2
aI6
aI7
aI6
aI10
aI5
aI4
aI7
aI3
aI2
aI34
aI55
aI56
aI9
aI6
aI12
aI7
aI5
aI11
aI1
aI16
aI18
aI7
aI10
aI4
aI3
aI7
aI5
aI5
aI14
aI8
aI11
aI11
aI15
aI11
aI13
aI5
aI9
aI7
aI5
aI20
aI11
aI2
aI1
aI16
aI5
aI0
aI7
aI9
aI12
aI2
aI15
aI22
aI25
aI5
aI0
aI17
aI4
aI5
aI6
aI10
aI21
aI9
aI11
aI3
aI1
aI19
aI0
aI5
aI3
aI4
aI8
aI57
aI21
aI8
aI19
aI5
aI16
aI0
aI3
aI13
aI2
aI16
aI12
aI4
aI15
aI10
aI7
aI2
aI34
aI3
aI9
aI9
aI1
aI4
aI15
aI27
aI14
aI16
aI8
aI6
aI5
aI8
aI2
aI2
aI19
aI25
aI2
aI2
aI14
aI19
aI4
aI45
aI8
aI4
aI1
aI25
aI22
aI5
aI29
aI4
aI18
aI14
aI7
aI8
aI34
aI1
aI8
aI1
aI3
aI4
aI62
aI18
aI10
aI8
aI27
aI24
aI14
aI5
aI4
aI2
aI11
aI0
aI4
aI52
aI6
aI23
aI2
aI11
aI8
aI20
aI5
aI4
aI14
aI0
aI32
aI1
aI4
aI30
aI0
aI21
aI32
aI27
aI5
aI7
aI36
aI5
aI12
aI59
aI8
aI29
aI2
aI5
aI4
aI13
aI2
aI5
aI4
aI15
aI11
aI37
aI1
aI17
aI20
aI22
aI19
aI27
aI9
aI11
aI9
aI17
aI11
aI7
aI5
aI0
aI15
aI27
aI13
aI16
aI2
aI21
aI6
aI65
aI39
aI5
aI2
aI25
aI9
aI13
aI8
aI1
aI4
aI8
aI66
aI16
aI16
aI10
aI7
aI13
aI6
aI3
aI6
aI15
aI10
aI4
aI6
aI16
aI15
aI3
aI7
aI10
aI12
aI7
aI12
aI11
aI7
aI14
aI17
aI8
aI7
aI7
aI37
aI1
aI75
aI11
aI10
aI15
aI64
aI149
aI71
aI0
aI17
aI45
aI28
aI74
aI26
aI30
aI84
aI0
aI35
aI10
aI12
aI7
aI22
aI66
aI83
aI43
aI3
aI38
aI9
aI9
aI13
aI7
aI49
aI49
aI32
aI69
aI18
aI16
aI56
aI8
aI75
aI60
aI50
aI76
aI63
aI6
aI24
aI99
aI25
aI19
aI26
aI35
aI49
aI32
aI15
aI35
aI21
aI2
aI21
aI12
aI25
aI7
aI9
aI19
aI3
aI23
aI105
aI6
aI101
aI26
aI11
aI13
aI31
aI25
aI57
aI24
aI31
aI82
aI18
aI47
aI18
aI14
aI27
aI2
aI48
aI22
aI38
aI25
aI6
aI54
aI73
aI8
aI58
aI23
aI6
aI35
aI33
aI25
aI34
aI7
aI9
aI4
aI12
aI60
aI101
aI10
aI17
aI24
aI14
aI11
aI25
aI17
aI26
aI29
aI87
aI32
aI8
aI28
aI18
aI47
aI19
aI29
aI25
aI9
aI8
aI50
aI68
aI17
aI32
aI15
aI22
aI119
aI45
aI11
aI20
aI4
aI23
aI20
aI42
aI37
aI14
aI52
aI21
aI16
aI1
aI68
aI61
aI36
aI64
aI16
aI72
aI39
aI3
aI127
aI21
aI20
aI40
aI59
aI8
aI73
aI122
aI23
aI26
aI27
aI11
aI16
aI46
aI4
aI14
aI2
aI10
aI15
aI22
aI9
aI21
aI96
aI56
aI17
aI6
aI32
aI70
aI1
aI4
aI16
aI12
aI152
aI61
aI42
aI9
aI100
aI56
aI10
aI61
aI66
aI5
aI16
aI25
aI50
aI49
aI41
aI8
aI43
aI6
aI26
aI10
aI9
aI40
aI25
aI5
aI40
aI9
aI80
aI37
aI28
aI23
aI34
aI5
aI18
aI71
aI3
aI41
aI10
aI49
aI9
aI4
aI11
aI24
aI21
aI3
aI18
aI41
aI17
aI13
aI26
aI31
aI9
aI28
aI30
aI88
aI6
aI36
aI22
aI30
aI10
aI4
aI9
aI65
aI26
aI0
aI16
aI31
aI79
aI13
aI32
aI69
aI50
aI59
aI37
aI14
aI30
aI66
aI53
aI36
aI10
aI49
aI31
aI16
aI37
aI15
aI58
aI10
aI67
aI3
aI31
aI139
aI110
aI18
aI62
aI10
aI22
aI65
aI0
aI27
aI86
aI46
aI87
aI53
aI48
aI57
aI18
aI22
aI14
aI17
aI0
aI9
aI21
aI9
aI70
aI22
aI23
aI16
aI23
aI3
aI24
aI58
aI21
aI32
aI8
aI19
aI25
aI53
aI21
aI39
aI6
aI38
aI9
aI23
aI8
aI21
aI49
aI65
aI68
aI20
aI9
aI33
aI35
aI15
aI53
aI18
aI13
aI31
aI31
aI9
aI14
aI11
aI35
aI33
aI56
aI14
aI40
aI64
aI17
aI0
aI1
aI28
aI42
aI1
aI36
aI32
aI25
aI26
aI60
aI17
aI23
aI52
aI11
aI37
aI43
aI70
aI62
aI52
aI46
aI79
aI12
aI27
aI8
aI34
aI75
aI45
aI5
aI12
aI73
aI4
aI9
aI17
aI5
aI50
aI73
aI28
aI33
aI63
aI33
aI8
aI12
aI37
aI21
aI24
aI38
aI11
aI23
aI44
aI8
aI77
aI11
aI18
aI27
aI13
aI43
aI18
aI71
aI88
aI35
aI9
aI3
aI1
aI8
aI13
aI23
aI51
aI12
aI28
aI7
aI27
aI19
aI28
aI42
aI46
aI50
aI46
aI43
aI21
aI34
aI21
aI7
aI14
aI18
aI16
aI66
aI43
aI36
aI7
aI9
aI13
aI4
aI30
aI10
aI9
aI13
aI26
aI26
aI70
aI187
aI16
aI23
aI17
aI14
aI4
aI17
aI35
aI4
aI11
aI100
aI44
aI19
aI31
aI15
aI38
aI18
aI31
aI17
aI31
aI74
aI38
aI23
aI37
aI40
aI21
aI4
aI14
aI20
aI64
aI0
aI30
aI41
aI4
aI49
aI11
aI83
aI23
aI19
aI30
aI4
aI50
aI8
aI2
aI22
aI32
aI10
aI28
aI28
aI24
aI7
aI23
aI34
aI3
aI19
aI41
aI19
aI24
aI72
aI29
aI18
aI21
aI38
aI53
aI21
aI67
aI88
aI12
aI42
aI37
aI21
aI4
aI28
aI45
aI37
aI78
aI8
aI57
aI15
aI58
aI23
aI16
aI0
aI3
aI21
aI51
aI11
aI18
aI34
aI14
aI22
aI27
aI38
aI22
aI112
aI35
aI21
aI1
aI51
aI29
aI24
aI17
aI9
aI4
aI38
aI19
aI75
aI11
aI6
aI30
aI0
aI41
aI6
aI48
aI32
aI14
aI7
aI25
aI0
aI25
aI36
aI35
aI6
aI21
aI3
aI41
aI11
aI10
aI44
aI36
aI19
aI80
aI30
aI5
aI16
aI29
aI1
aI3
aI21
aI6
aI11
aI6
aI12
aI2
aI13
aI19
aI19
aI6
aI34
aI49
aI63
aI41
aI3
aI47
aI9
aI37
aI12
aI32
aI19
aI20
aI22
aI11
aI66
aI14
aI20
aI1
aI17
aI58
aI16
aI40
aI92
aI29
aI14
aI51
aI55
aI32
aI10
aI15
aI18
aI8
aI8
aI14
aI51
aI1
aI126
aI27
aI14
aI41
aI20
aI14
aI22
aI13
aI10
aI17
aI52
aI11
aI41
aI30
aI23
aI7
aI47
aI110
aI23
aI46
aI32
aI24
aI3
aI51
aI17
aI8
aI8
aI5
aI15
aI64
aI17
aI16
aI20
aI22
aI3
aI10
aI19
aI4
aI6
aI48
aI19
aI9
aI10
aI11
aI2
aI19
aI65
aI4
aI40
aI29
aI31
aI39
aI22
aI8
aI13
aI28
aI49
aI8
aI78
aI61
aI13
aI5
aI19
aI4
aI15
aI41
aI18
aI38
aI5
aI123
aI7
aI16
aI8
aI4
aI24
aI48
aI22
aI26
aI21
aI7
aI30
aI37
aI1
aI8
aI6
aI61
aI24
aI75
aI18
aI49
aI1
aI18
aI81
aI7
aI53
aI56
aI37
aI64
aI24
aI13
a.