(lp0
I18
aI8
aI16
aI18
aI11
aI27
aI2
aI34
aI3
aI43
aI11
aI33
aI7
aI98
aI11
aI27
aI14
aI40
aI12
aI8
aI21
aI14
aI11
aI43
aI22
aI14
aI14
aI30
aI12
aI29
aI22
aI2
aI30
aI16
aI21
aI34
aI31
aI37
aI38
aI3
aI71
aI10
aI31
aI25
aI15
aI17
aI15
aI24
aI34
aI32
aI18
aI9
aI13
aI41
aI16
aI8
aI21
aI12
aI9
aI34
aI22
aI29
aI33
aI16
aI4
aI19
aI13
aI14
aI3
aI22
aI55
aI36
aI23
aI19
aI10
aI18
aI14
aI8
aI31
aI14
aI16
aI22
aI16
aI18
aI26
aI9
aI26
aI28
aI23
aI15
aI40
aI20
aI41
aI4
aI26
aI11
aI17
aI11
aI11
aI16
aI12
aI13
aI15
aI34
aI33
aI10
aI31
aI8
aI33
aI9
aI39
aI16
aI14
aI24
aI17
aI14
aI59
aI6
aI6
aI53
aI13
aI43
aI17
aI18
aI33
aI18
aI14
aI14
aI11
aI10
aI37
aI16
aI18
aI18
aI24
aI18
aI37
aI8
aI38
aI12
aI41
aI8
aI9
aI13
aI13
aI45
aI6
aI38
aI21
aI43
aI20
aI22
aI14
aI22
aI20
aI13
aI11
aI8
aI24
aI39
aI21
aI44
aI25
aI18
aI23
aI14
aI38
aI10
aI33
aI34
aI16
aI25
aI10
aI26
aI25
aI31
aI28
aI49
aI14
aI16
aI11
aI38
aI9
aI6
aI13
aI23
aI6
aI78
aI38
aI14
aI19
aI12
aI3
aI11
aI39
aI37
aI32
aI1
aI6
aI11
aI5
aI19
aI42
aI11
aI25
aI24
aI41
aI16
aI31
aI11
aI78
aI5
aI13
aI19
aI64
aI21
aI5
aI23
aI13
aI1
aI27
aI32
aI20
aI27
aI12
aI16
aI39
aI26
aI6
aI28
aI7
aI10
aI9
aI34
aI60
aI25
aI3
aI15
aI23
aI18
aI8
aI26
aI17
aI32
aI24
aI25
aI22
aI2
aI18
aI23
aI11
aI19
aI13
aI18
aI16
aI16
aI19
aI9
aI9
aI12
aI21
aI4
aI22
aI41
aI12
aI37
aI22
aI36
aI43
aI26
aI28
aI10
aI13
aI25
aI16
aI26
aI25
aI8
aI13
aI9
aI10
aI13
aI30
aI9
aI29
aI4
aI13
aI39
aI17
aI9
aI12
aI3
aI5
aI16
aI45
aI15
aI16
aI24
aI24
aI13
aI31
aI12
aI14
aI26
aI9
aI48
aI13
aI30
aI11
aI9
aI33
aI18
aI25
aI58
aI16
aI9
aI10
aI18
aI29
aI11
aI17
aI14
aI30
aI26
aI18
aI11
aI15
aI7
aI10
aI16
aI10
aI21
aI37
aI2
aI26
aI22
aI34
aI41
aI49
aI15
aI27
aI23
aI12
aI25
aI62
aI24
aI10
aI19
aI11
aI32
aI34
aI8
aI31
aI9
aI18
aI13
aI15
aI18
aI16
aI22
aI17
aI7
aI34
aI36
aI40
aI15
aI21
aI7
aI9
aI11
aI15
aI14
aI34
aI37
aI27
aI29
aI13
aI5
aI19
aI8
aI19
aI11
aI19
aI9
aI22
aI4
aI13
aI14
aI14
aI17
aI23
aI13
aI20
aI11
aI37
aI82
aI17
aI14
aI12
aI42
aI8
aI29
aI31
aI21
aI17
aI16
aI10
aI19
aI35
aI11
aI19
aI27
aI23
aI23
aI35
aI34
aI13
aI3
aI5
aI20
aI13
aI22
aI25
aI38
aI27
aI4
aI38
aI20
aI20
aI15
aI23
aI22
aI32
aI17
aI20
aI25
aI5
aI28
aI13
aI10
aI29
aI19
aI38
aI6
aI27
aI21
aI9
aI35
aI9
aI15
aI6
aI13
aI52
aI37
aI13
aI20
aI30
aI21
aI32
aI34
aI23
aI11
aI17
aI17
aI10
aI19
aI82
aI12
aI16
aI24
aI28
aI38
aI6
aI14
aI19
aI12
aI59
aI23
aI20
aI16
aI5
aI4
aI11
aI46
aI22
aI31
aI11
aI11
aI40
aI6
aI23
aI21
aI6
aI22
aI25
aI23
aI20
aI7
aI25
aI23
aI3
aI27
aI31
aI22
aI12
aI5
aI7
aI24
aI8
aI58
aI14
aI24
aI27
aI33
aI7
aI13
aI19
aI23
aI13
aI15
aI17
aI23
aI12
aI8
aI6
aI19
aI16
aI15
aI14
aI12
aI17
aI39
aI47
aI21
aI20
aI11
aI30
aI7
aI26
aI15
aI9
aI32
aI41
aI34
aI23
aI26
aI20
aI31
aI26
aI10
aI17
aI11
aI18
aI11
aI26
aI30
aI11
aI20
aI7
aI26
aI17
aI11
aI12
aI16
aI9
aI7
aI24
aI12
aI22
aI16
aI33
aI19
aI20
aI41
aI3
aI16
aI65
aI40
aI13
aI23
aI16
aI2
aI28
aI13
aI13
aI22
aI4
aI28
aI16
aI34
aI11
aI9
aI9
aI13
aI26
aI16
aI6
aI9
aI12
aI10
aI1
aI18
aI11
aI3
aI10
aI13
aI14
aI9
aI1
aI4
aI10
aI28
aI8
aI65
aI5
aI7
aI22
aI22
aI7
aI26
aI10
aI17
aI18
aI11
aI17
aI9
aI4
aI54
aI16
aI11
aI8
aI9
aI11
aI15
aI27
aI19
aI2
aI20
aI19
aI41
aI64
aI15
aI28
aI4
aI18
aI27
aI4
aI6
aI47
aI9
aI11
aI1
aI6
aI5
aI17
aI15
aI6
aI2
aI32
aI9
aI14
aI50
aI17
aI13
aI13
aI8
aI26
aI21
aI3
aI3
aI9
aI4
aI8
aI9
aI12
aI10
aI8
aI7
aI20
aI36
aI1
aI3
aI10
aI6
aI16
aI26
aI12
aI5
aI4
aI26
aI27
aI9
aI18
aI3
aI27
aI2
aI29
aI3
aI12
aI6
aI25
aI9
aI10
aI29
aI13
aI5
aI9
aI16
aI12
aI4
aI9
aI12
aI25
aI17
aI2
aI1
aI10
aI2
aI14
aI13
aI14
aI12
aI21
aI14
aI25
aI29
aI6
aI41
aI33
aI13
aI10
aI29
aI17
aI13
aI6
aI14
aI14
aI13
aI20
aI8
aI6
aI42
aI12
aI4
aI17
aI3
aI37
aI9
aI23
aI18
aI12
aI23
aI17
aI37
aI10
aI11
aI23
aI15
aI14
aI8
aI14
aI16
aI22
aI15
aI4
aI29
aI17
aI11
aI3
aI6
aI28
aI28
aI22
aI7
aI31
aI18
aI6
aI27
aI6
aI20
aI18
aI18
aI10
aI26
aI20
aI6
aI26
aI3
aI11
aI28
aI24
aI17
aI18
aI10
aI13
aI13
aI8
aI30
aI14
aI38
aI10
aI11
aI4
aI12
aI9
aI7
aI7
aI29
aI41
aI18
aI15
aI10
aI11
aI19
aI7
aI7
aI15
aI8
aI16
aI6
aI16
aI18
aI23
aI7
aI14
aI26
aI12
aI13
aI12
aI2
aI30
aI23
aI14
aI3
aI11
aI12
aI3
aI7
aI22
aI12
aI8
aI15
aI5
aI12
aI22
aI24
aI11
aI19
aI13
aI4
aI29
aI10
aI9
aI11
aI42
aI11
aI11
aI9
aI29
aI8
aI43
aI7
aI20
aI12
aI14
aI25
aI23
aI2
aI20
aI14
aI11
aI3
aI6
aI13
aI15
aI12
aI16
aI25
aI19
aI12
aI3
aI17
aI16
aI48
aI31
aI7
aI33
aI18
aI11
aI9
aI26
aI4
aI11
aI11
aI7
aI11
aI5
aI12
aI12
aI3
aI3
aI19
aI9
aI15
aI5
aI18
aI11
aI20
aI7
aI10
aI54
aI15
aI8
aI17
aI13
aI12
aI4
aI8
aI9
aI15
aI7
aI5
aI2
aI14
aI27
aI31
aI32
aI5
aI15
aI14
aI13
aI17
aI26
aI21
aI12
aI3
aI6
aI16
aI23
aI9
aI19
aI24
aI14
aI8
aI13
aI14
aI19
aI6
aI56
aI13
aI21
aI12
aI11
aI19
aI21
aI7
aI17
aI9
aI5
aI14
aI3
aI8
aI16
aI18
aI7
aI24
aI5
aI6
aI16
aI21
aI3
aI5
aI12
aI4
aI16
aI19
aI13
aI11
aI8
aI29
aI12
aI3
aI5
aI9
aI7
aI6
aI13
aI6
aI14
aI7
aI30
aI4
aI6
aI9
aI14
aI38
aI38
aI10
aI3
aI9
aI13
aI13
aI4
aI12
aI13
aI8
aI13
aI8
aI38
aI14
aI25
aI6
aI16
aI13
aI14
aI11
aI5
aI7
aI21
aI5
aI5
aI58
aI16
aI7
aI13
aI3
aI21
aI7
aI22
aI7
aI9
aI2
aI37
aI16
aI12
aI13
aI22
aI11
aI16
aI11
aI25
aI16
aI13
aI5
aI3
aI5
aI17
aI5
aI5
aI6
aI0
aI7
aI21
aI4
aI26
aI19
aI1
aI12
aI44
aI3
aI10
aI10
aI21
aI4
aI14
aI23
aI10
aI16
aI39
aI7
aI16
aI27
aI24
aI16
aI7
aI0
aI8
aI4
aI9
aI11
aI8
aI15
aI3
aI10
aI13
aI15
aI40
aI15
aI4
aI32
aI11
aI16
aI9
aI4
aI11
aI18
aI6
aI7
aI1
aI10
aI15
aI0
aI6
aI19
aI22
aI5
aI8
aI20
aI11
aI39
aI1
aI19
aI12
aI13
aI12
aI4
aI16
aI36
aI7
aI4
aI14
aI11
aI7
aI1
aI39
aI12
aI25
aI14
aI11
aI12
aI18
aI17
aI7
aI9
aI21
aI21
aI13
aI10
aI19
aI4
aI17
aI16
aI31
aI16
aI14
aI54
aI4
aI22
aI9
aI22
aI21
aI20
aI19
aI9
aI7
aI11
aI10
aI7
aI19
aI18
aI25
aI24
aI14
aI11
aI31
aI8
aI12
aI9
aI8
aI32
aI10
aI24
aI3
aI12
aI16
aI6
aI14
aI15
aI8
aI36
aI20
aI4
aI18
aI19
aI17
aI22
aI15
aI7
aI4
aI4
aI3
aI1
aI11
aI3
aI2
aI4
aI6
aI3
aI2
aI1
aI1
aI1
aI4
aI3
aI0
aI3
aI0
aI1
aI2
aI11
aI5
aI8
aI1
aI3
aI1
aI2
aI8
aI4
aI4
aI1
aI3
aI1
aI0
aI0
aI3
aI14
aI0
aI4
aI1
aI5
aI1
aI3
aI8
aI3
aI5
aI2
aI7
aI1
aI2
aI0
aI1
aI2
aI2
aI2
aI7
aI6
aI6
aI1
aI4
aI2
aI1
aI5
aI2
aI2
aI2
aI4
aI6
aI0
aI4
aI0
aI0
aI5
aI5
aI8
aI3
aI2
aI4
aI1
aI2
aI3
aI2
aI7
aI0
aI1
aI3
aI1
aI5
aI1
aI3
aI5
aI1
aI6
aI2
aI1
aI1
aI0
aI9
aI9
aI2
aI1
aI3
aI4
aI7
aI3
aI3
aI13
aI4
aI0
aI2
aI0
aI4
aI0
aI4
aI1
aI0
aI1
aI0
aI0
aI9
aI1
aI2
aI1
aI3
aI4
aI6
aI2
aI2
aI6
aI3
aI5
aI1
aI2
aI1
aI12
aI4
aI2
aI3
aI4
aI2
aI4
aI8
aI1
aI3
aI0
aI0
aI10
aI1
aI2
aI2
aI2
aI1
aI3
aI8
aI4
aI1
aI4
aI3
aI2
aI0
aI1
aI4
aI2
aI4
aI2
aI3
aI1
aI9
aI3
aI1
aI0
aI0
aI0
aI3
aI1
aI2
aI3
aI8
aI4
aI2
aI6
aI0
aI1
aI3
aI5
aI2
aI4
aI0
aI2
aI1
aI6
aI0
aI6
aI1
aI1
aI5
aI1
aI1
aI5
aI3
aI5
aI2
aI6
aI2
aI0
aI3
aI4
aI2
aI2
aI1
aI5
aI0
aI1
aI1
aI4
aI4
aI6
aI5
aI3
aI6
aI4
aI7
aI2
aI5
aI0
aI5
aI1
aI3
aI9
aI1
aI2
aI3
aI3
aI4
aI3
aI0
aI3
aI4
aI4
aI3
aI5
aI5
aI6
aI1
aI1
aI3
aI6
aI4
aI2
aI1
aI2
aI1
aI0
aI1
aI2
aI1
aI4
aI6
aI0
aI1
aI2
aI17
aI1
aI4
aI0
aI0
aI0
aI1
aI2
aI5
aI0
aI2
aI1
aI2
aI3
aI0
aI2
aI4
aI7
aI4
aI2
aI0
aI1
aI2
aI0
aI1
aI2
aI7
aI7
aI3
aI1
aI2
aI2
aI7
aI1
aI0
aI3
aI5
aI2
aI9
aI6
aI2
aI8
aI1
aI0
aI2
aI7
aI6
aI2
aI9
aI10
aI2
aI1
aI2
aI3
aI1
aI13
aI2
aI2
aI0
aI2
aI1
aI3
aI2
aI1
aI4
aI0
aI0
aI2
aI2
aI2
aI2
aI3
aI2
aI1
aI0
aI0
aI2
aI5
aI3
aI7
aI3
aI5
aI6
aI4
aI5
aI1
aI1
aI3
aI2
aI0
aI2
aI0
aI4
aI0
aI3
aI2
aI12
aI1
aI1
aI1
aI3
aI2
aI7
aI1
aI2
aI1
aI0
aI3
aI1
aI1
aI1
aI3
aI1
aI5
aI3
aI4
aI25
aI4
aI1
aI3
aI0
aI6
aI3
aI6
aI1
aI7
aI4
aI2
aI3
aI6
aI1
aI0
aI1
aI3
aI0
aI2
aI1
aI0
aI5
aI1
aI2
aI5
aI7
aI1
aI2
aI0
aI2
aI2
aI1
aI3
aI2
aI6
aI1
aI1
aI5
aI2
aI2
aI6
aI3
aI2
aI2
aI3
aI3
aI7
aI9
aI5
aI1
aI7
aI5
aI5
aI9
aI3
aI4
aI4
aI2
aI2
aI1
aI0
aI3
aI1
aI2
aI3
aI2
aI7
aI0
aI0
aI5
aI2
aI2
aI1
aI1
aI0
aI3
aI4
aI1
aI4
aI4
aI6
aI2
aI7
aI8
aI3
aI6
aI0
aI1
aI4
aI13
aI3
aI2
aI12
aI3
aI2
aI3
aI4
aI2
aI3
aI0
aI8
aI3
aI4
aI4
aI1
aI2
aI2
aI4
aI1
aI3
aI3
aI2
aI2
aI1
aI6
aI0
aI2
aI1
aI3
aI2
aI5
aI2
aI2
aI3
aI2
aI1
aI1
aI4
aI5
aI7
aI0
aI3
aI3
aI6
aI2
aI4
aI11
aI3
aI2
aI2
aI3
aI4
aI7
aI5
aI2
aI3
aI0
aI4
aI7
aI1
aI0
aI0
aI11
aI1
aI3
aI6
aI4
aI4
aI0
aI4
aI2
aI2
aI0
aI1
aI1
aI2
aI10
aI3
aI2
aI0
aI0
aI4
aI5
aI1
aI0
aI0
aI0
aI2
aI0
aI3
aI5
aI6
aI0
aI4
aI4
aI7
aI4
aI0
aI8
aI3
aI11
aI0
aI11
aI2
aI5
aI0
aI1
aI3
aI4
aI3
aI4
aI6
aI1
aI1
aI6
aI6
aI6
aI8
aI0
aI1
aI0
aI3
aI0
aI1
aI1
aI2
aI4
aI11
aI2
aI2
aI3
aI0
aI5
aI4
aI7
aI1
aI9
aI4
aI6
aI2
aI2
aI3
aI9
aI1
aI0
aI3
aI1
aI2
aI5
aI0
aI1
aI0
aI1
aI3
aI2
aI11
aI8
aI5
aI2
aI4
aI1
aI2
aI1
aI4
aI2
aI1
aI1
aI3
aI3
aI5
aI1
aI0
aI5
aI1
aI3
aI6
aI7
aI3
aI4
aI5
aI2
aI1
aI0
aI1
aI2
aI2
aI0
aI0
aI2
aI5
aI7
aI1
aI1
aI4
aI2
aI4
aI0
aI0
aI3
aI2
aI6
aI2
aI4
aI6
aI2
aI6
aI2
aI1
aI1
aI1
aI5
aI8
aI12
aI1
aI0
aI2
aI26
aI0
aI2
aI2
aI3
aI3
aI8
aI4
aI2
aI0
aI11
aI2
aI9
aI3
aI0
aI0
aI0
aI2
aI4
aI3
aI0
aI2
aI16
aI6
aI11
aI1
aI4
aI1
aI1
aI4
aI6
aI5
aI3
aI0
aI5
aI4
aI4
aI2
aI0
aI2
aI9
aI1
aI6
aI4
aI11
aI9
aI5
aI7
aI2
aI4
aI8
aI10
aI1
aI2
aI3
aI8
aI1
aI0
aI2
aI1
aI1
aI6
aI10
aI4
aI1
aI5
aI5
aI7
aI1
aI2
aI19
aI12
aI2
aI0
aI1
aI10
aI1
aI3
aI4
aI3
aI2
aI3
aI2
aI10
aI8
aI2
aI1
aI7
aI2
aI8
aI3
aI3
aI9
aI1
aI1
aI20
aI4
aI6
aI5
aI3
aI5
aI8
aI5
aI5
aI12
aI4
aI11
aI2
aI2
aI1
aI1
aI30
aI15
aI0
aI3
aI1
aI8
aI6
aI1
aI10
aI3
aI0
aI2
aI4
aI4
aI4
aI2
aI2
aI7
aI4
aI6
aI1
aI2
aI3
aI2
aI0
aI3
aI4
aI5
aI3
aI4
aI4
aI0
aI4
aI6
aI1
aI1
aI10
aI2
aI1
aI1
aI0
aI6
aI0
aI3
aI5
aI4
aI5
aI1
aI8
aI4
aI7
aI1
aI7
aI10
aI2
aI1
aI3
aI1
aI7
aI1
aI0
aI7
aI1
aI2
aI3
aI2
aI2
aI9
aI5
aI2
aI4
aI1
aI0
aI5
aI2
aI4
aI11
aI6
aI1
aI2
aI10
aI8
aI0
aI2
aI9
aI6
aI10
aI3
aI6
aI4
aI3
aI4
aI4
aI5
aI4
aI3
aI7
aI4
aI16
aI4
aI1
aI2
aI5
aI6
aI3
aI2
aI1
aI2
aI4
aI3
aI0
aI5
aI1
aI2
aI3
aI7
aI1
aI7
aI0
aI8
aI0
aI9
aI0
aI2
aI6
aI1
aI1
aI2
aI3
aI1
aI1
aI7
aI5
aI2
aI3
aI3
aI1
aI15
aI3
aI4
aI1
aI3
aI9
aI1
aI1
aI4
aI4
aI3
aI5
aI0
aI6
aI1
aI3
aI5
aI0
aI2
aI3
aI3
aI3
aI4
aI2
aI7
aI7
aI0
aI1
aI0
aI0
aI3
aI7
aI7
aI0
aI5
aI0
aI2
aI14
aI4
aI2
aI17
aI2
aI2
aI2
aI0
aI4
aI3
aI7
aI10
aI4
aI5
aI0
aI3
aI0
aI1
aI3
aI3
aI2
aI1
aI4
aI1
aI0
aI10
aI3
aI1
aI1
aI4
aI9
aI7
aI2
aI5
aI4
aI5
aI1
aI0
aI1
aI2
aI0
aI2
aI1
aI13
aI6
aI7
aI3
aI4
aI1
aI12
aI8
aI3
aI6
aI7
aI11
aI13
aI1
aI4
aI0
aI1
aI4
aI0
aI1
aI0
aI0
aI9
aI3
aI2
aI7
aI0
aI5
aI3
aI5
aI36
aI2
aI1
aI5
aI2
aI2
aI3
aI1
aI1
aI10
aI2
aI1
aI2
aI11
aI1
aI0
aI1
aI18
aI0
aI1
aI6
aI2
aI9
aI9
aI10
aI6
aI0
aI4
aI4
aI8
aI1
aI1
aI4
aI3
aI18
aI7
aI8
aI3
aI4
aI6
aI3
aI4
aI8
aI3
aI3
aI2
aI1
aI3
aI5
aI3
aI17
aI23
aI1
aI0
aI9
aI16
aI5
aI3
aI2
aI2
aI3
aI5
aI2
aI0
aI2
aI3
aI1
aI3
aI3
aI3
aI5
aI7
aI1
aI7
aI2
aI1
aI6
aI4
aI1
aI5
aI6
aI3
aI4
aI6
aI2
aI8
aI0
aI5
aI3
aI6
aI9
aI1
aI0
aI7
aI2
aI0
aI1
aI3
aI5
aI4
aI1
aI9
aI1
aI0
aI0
aI2
aI1
aI10
aI2
aI1
aI2
aI2
aI3
aI9
aI10
aI2
aI2
aI1
aI9
aI8
aI4
aI13
aI2
aI2
aI5
aI16
aI4
aI0
aI6
aI9
aI5
aI3
aI4
aI4
aI13
aI6
aI11
aI1
aI12
aI3
aI12
aI5
aI0
aI11
aI6
aI19
aI9
aI5
aI8
aI20
aI2
aI5
aI3
aI1
aI1
aI2
aI8
aI15
aI12
aI2
aI5
aI7
aI3
aI6
aI6
aI7
aI5
aI5
aI10
aI12
aI10
aI12
aI14
aI12
aI2
aI7
aI10
aI3
aI9
aI3
aI10
aI2
aI1
aI3
aI3
aI4
aI4
aI6
aI3
aI1
aI6
aI0
aI7
aI3
aI11
aI4
aI1
aI15
aI2
aI4
aI3
aI3
aI10
aI8
aI24
aI9
aI12
aI6
aI3
aI0
aI4
aI16
aI8
aI8
aI0
aI7
aI3
aI4
aI1
aI6
aI5
aI6
aI4
aI2
aI7
aI6
aI11
aI1
aI4
aI12
aI3
aI8
aI5
aI5
aI5
aI1
aI3
aI5
aI4
aI7
aI6
aI7
aI6
aI11
aI6
aI9
aI8
aI9
aI13
aI3
aI6
aI7
aI14
aI1
aI3
aI15
aI3
aI13
aI5
aI1
aI13
aI3
aI3
aI17
aI4
aI5
aI5
aI5
aI3
aI11
aI4
aI3
aI0
aI2
aI7
aI9
aI42
aI4
aI9
aI1
aI1
aI4
aI3
aI9
aI4
aI2
aI0
aI0
aI1
aI5
aI10
aI7
aI5
aI17
aI3
aI7
aI2
aI1
aI1
aI16
aI1
aI2
aI7
aI4
aI2
aI2
aI21
aI8
aI9
aI5
aI0
aI10
aI5
aI3
aI13
aI7
aI3
aI3
aI2
aI1
aI1
aI4
aI12
aI3
aI4
aI2
aI4
aI15
aI9
aI4
aI0
aI4
aI5
aI1
aI11
aI2
aI8
aI5
aI1
aI10
aI0
aI4
aI1
aI4
aI9
aI3
aI7
aI5
aI5
aI6
aI5
aI4
aI0
aI5
aI4
aI8
aI11
aI2
aI24
aI6
aI10
aI2
aI3
aI11
aI9
aI6
aI3
aI4
aI4
aI3
aI7
aI3
aI6
aI10
aI3
aI2
aI3
aI3
aI6
aI6
aI7
aI10
aI8
aI2
aI7
aI7
aI3
aI4
aI2
aI2
aI2
aI7
aI10
aI11
aI4
aI8
aI10
aI8
aI8
aI1
aI3
aI4
aI14
aI15
aI0
aI4
aI5
aI9
aI2
aI2
aI4
aI0
aI4
aI1
aI12
aI5
aI8
aI1
aI3
aI3
aI8
aI3
aI2
aI4
aI7
aI3
aI12
aI10
aI5
aI4
aI0
aI5
aI3
aI1
aI2
aI8
aI6
aI6
aI3
aI15
aI3
aI36
aI4
aI2
aI5
aI1
aI0
aI5
aI5
aI3
aI11
aI3
aI4
aI0
aI7
aI4
aI5
aI2
aI11
aI1
aI11
aI13
aI3
aI7
aI0
aI0
aI6
aI7
aI12
aI4
aI19
aI2
aI2
aI6
aI1
aI7
aI4
aI8
aI6
aI3
aI6
aI4
aI9
aI2
aI0
aI2
aI4
aI7
aI4
aI3
aI1
aI4
aI13
aI2
aI2
aI12
aI0
aI0
aI4
aI0
aI7
aI8
aI6
aI9
aI13
aI0
aI2
aI6
aI1
aI14
aI2
aI4
aI2
aI7
aI4
aI5
aI3
aI10
aI5
aI0
aI7
aI3
aI5
aI10
aI6
aI42
aI9
aI8
aI4
aI14
aI2
aI9
aI6
aI17
aI11
aI5
aI7
aI5
aI9
aI0
aI4
aI2
aI4
aI7
aI2
aI1
aI4
aI5
aI11
aI1
aI2
aI9
aI23
aI6
aI15
aI4
aI0
aI2
aI8
aI3
aI7
aI11
aI0
aI3
aI6
aI3
aI9
aI5
aI4
aI8
aI3
aI1
aI1
aI17
aI7
aI4
aI1
aI1
aI6
aI5
aI3
aI0
aI9
aI1
aI2
aI3
aI12
aI5
aI1
aI3
aI4
aI3
aI16
aI12
aI4
aI3
aI4
aI4
aI3
aI12
aI7
aI9
aI4
aI14
aI8
aI8
aI6
aI4
aI5
aI8
aI6
aI8
aI6
aI1
aI1
aI1
aI10
aI2
aI2
aI2
aI2
aI5
aI5
aI12
aI11
aI7
aI8
aI6
aI2
aI3
aI10
aI9
aI1
aI8
aI1
aI2
aI5
aI7
aI2
aI11
aI4
aI0
aI0
aI2
aI20
aI8
aI2
aI4
aI3
aI5
aI4
aI16
aI3
aI3
aI5
aI0
aI26
aI6
aI3
aI8
aI6
aI2
aI1
aI5
aI4
aI4
aI2
aI2
aI7
aI9
aI7
aI1
aI8
aI2
aI7
aI8
aI1
aI4
aI9
aI3
aI2
aI10
aI2
aI3
aI4
aI11
aI13
aI11
aI7
aI14
aI16
aI7
aI1
aI0
aI5
aI4
aI5
aI4
aI1
aI10
aI5
aI14
aI2
aI11
aI12
aI7
aI5
aI7
aI16
aI8
aI4
aI6
aI4
aI1
aI1
aI1
aI7
aI5
aI5
aI4
aI6
aI7
aI0
aI8
aI4
aI3
aI5
aI1
aI5
aI5
aI2
aI1
aI0
aI2
aI1
aI2
aI2
aI1
aI3
aI8
aI2
aI1
aI6
aI0
aI0
aI2
aI0
aI1
aI3
aI0
aI0
aI1
aI9
aI4
aI3
aI4
aI9
aI1
aI6
aI1
aI0
aI3
aI4
aI2
aI1
aI2
aI2
aI1
aI1
aI4
aI6
aI3
aI5
aI2
aI3
aI3
aI7
aI3
aI1
aI1
aI6
aI7
aI10
aI7
aI1
aI4
aI5
aI7
aI2
aI2
aI3
aI3
aI3
aI3
aI2
aI1
aI1
aI3
aI0
aI1
aI4
aI0
aI7
aI6
aI2
aI9
aI4
aI4
aI0
aI3
aI1
aI0
aI0
aI5
aI8
aI0
aI8
aI2
aI5
aI1
aI0
aI1
aI10
aI7
aI6
aI5
aI1
aI2
aI0
aI2
aI6
aI4
aI6
aI2
aI8
aI5
aI6
aI3
aI7
aI2
aI1
aI4
aI2
aI2
aI2
aI0
aI2
aI0
aI11
aI2
aI9
aI4
aI8
aI2
aI4
aI0
aI2
aI3
aI8
aI3
aI5
aI0
aI6
aI5
aI4
aI2
aI4
aI0
aI15
aI1
aI2
aI0
aI6
aI4
aI0
aI5
aI0
aI0
aI3
aI3
aI1
aI3
aI3
aI2
aI2
aI3
aI3
aI1
aI0
aI9
aI11
aI2
aI3
aI3
aI5
aI3
aI4
aI1
aI2
aI7
aI0
aI2
aI2
aI2
aI4
aI2
aI3
aI9
aI1
aI3
aI4
aI4
aI0
aI0
aI2
aI8
aI2
aI5
aI1
aI5
aI3
aI2
aI5
aI5
aI4
aI1
aI6
aI2
aI1
aI8
aI4
aI0
aI1
aI1
aI2
aI3
aI3
aI1
aI2
aI0
aI9
aI3
aI4
aI2
aI2
aI7
aI8
aI0
aI1
aI1
aI1
aI0
aI2
aI5
aI2
aI2
aI5
aI6
aI0
aI2
aI2
aI1
aI0
aI2
aI2
aI3
aI8
aI2
aI6
aI4
aI3
aI1
aI3
aI3
aI5
aI3
aI4
aI2
aI1
aI3
aI3
aI0
aI4
aI7
aI1
aI1
aI2
aI4
aI2
aI3
aI1
aI2
aI2
aI2
aI4
aI9
aI2
aI6
aI1
aI8
aI1
aI1
aI0
aI2
aI1
aI3
aI5
aI3
aI3
aI4
aI12
aI1
aI15
aI1
aI3
aI1
aI2
aI0
aI0
aI1
aI7
aI2
aI2
aI10
aI1
aI2
aI3
aI1
aI4
aI1
aI0
aI3
aI11
aI3
aI9
aI4
aI4
aI0
aI7
aI2
aI3
aI0
aI0
aI2
aI2
aI0
aI0
aI4
aI2
aI6
aI1
aI3
aI3
aI0
aI3
aI4
aI3
aI4
aI5
aI1
aI1
aI3
aI8
aI2
aI3
aI2
aI2
aI1
aI1
aI0
aI2
aI4
aI2
aI3
aI1
aI3
aI5
aI2
aI0
aI1
aI0
aI3
aI3
aI11
aI12
aI1
aI7
aI3
aI4
aI2
aI2
aI6
aI4
aI0
aI7
aI3
aI3
aI2
aI3
aI2
aI5
aI2
aI5
aI1
aI5
aI5
aI0
aI7
aI5
aI1
aI2
aI0
aI2
aI8
aI0
aI5
aI10
aI6
aI4
aI1
aI2
aI7
aI0
aI5
aI4
aI7
aI13
aI3
aI2
aI6
aI1
aI0
aI7
aI6
aI3
aI2
aI3
aI4
aI5
aI0
aI9
aI1
aI4
aI1
aI6
aI3
aI6
aI7
aI3
aI2
aI0
aI2
aI0
aI6
aI3
aI2
aI1
aI3
aI0
aI3
aI1
aI0
aI1
aI4
aI3
aI1
aI4
aI0
aI2
aI4
aI4
aI1
aI8
aI1
aI0
aI5
aI2
aI2
aI7
aI3
aI1
aI2
aI2
aI0
aI2
aI2
aI3
aI2
aI4
aI2
aI2
aI3
aI0
aI3
aI0
aI2
aI9
aI0
aI1
aI5
aI5
aI2
aI4
aI0
aI5
aI6
aI6
aI5
aI0
aI11
aI3
aI5
aI11
aI3
aI0
aI3
aI1
aI3
aI3
aI4
aI7
aI10
aI0
aI4
aI4
aI0
aI1
aI5
aI3
aI1
aI0
aI2
aI0
aI6
aI1
aI3
aI0
aI3
aI6
aI4
aI2
aI4
aI6
aI10
aI1
aI1
aI2
aI3
aI10
aI7
aI0
aI0
aI3
aI2
aI5
aI0
aI2
aI2
aI10
aI2
aI5
aI1
aI0
aI7
aI3
aI2
aI2
aI6
aI9
aI4
aI0
aI0
aI4
aI4
aI2
aI1
aI2
aI3
aI3
aI0
aI1
aI3
aI5
aI6
aI3
aI1
aI0
aI5
aI6
aI1
aI2
aI5
aI0
aI3
aI4
aI2
aI1
aI1
aI1
aI7
aI8
aI1
aI5
aI7
aI5
aI5
aI6
aI2
aI4
aI4
aI9
aI4
aI1
aI8
aI30
aI4
aI9
aI17
aI9
aI6
aI5
aI12
aI26
aI21
aI15
aI9
aI27
aI23
aI5
aI2
aI10
aI31
aI1
aI4
aI10
aI5
aI28
aI59
aI2
aI18
aI11
aI2
aI29
aI20
aI2
aI31
aI13
aI4
aI16
aI5
aI6
aI22
aI86
aI10
aI7
aI11
aI16
aI2
aI3
aI2
aI1
aI6
aI72
aI37
aI11
aI5
aI2
aI30
aI53
aI72
aI4
aI16
aI14
aI8
aI6
aI13
aI14
aI16
aI4
aI39
aI8
aI9
aI16
aI5
aI20
aI15
aI4
aI13
aI3
aI3
aI33
aI23
aI11
aI3
aI9
aI5
aI19
aI7
aI13
aI5
aI2
aI7
aI30
aI5
aI13
aI13
aI22
aI11
aI13
aI16
aI5
aI1
aI14
aI21
aI10
aI2
aI2
aI21
aI7
aI5
aI2
aI46
aI14
aI16
aI4
aI1
aI11
aI24
aI2
aI16
aI13
aI11
aI5
aI18
aI22
aI13
aI13
aI17
aI23
aI16
aI11
aI10
aI10
aI4
aI3
aI4
aI25
aI2
aI2
aI4
aI3
aI3
aI15
aI31
aI3
aI7
aI18
aI2
aI20
aI3
aI5
aI6
aI5
aI11
aI5
aI16
aI2
aI13
aI4
aI8
aI6
aI63
aI2
aI15
aI6
aI7
aI6
aI0
aI6
aI57
aI1
aI7
aI4
aI5
aI6
aI15
aI10
aI39
aI10
aI4
aI2
aI7
aI8
aI12
aI21
aI2
aI22
aI3
aI9
aI7
aI11
aI14
aI2
aI3
aI9
aI2
aI1
aI1
aI8
aI31
aI6
aI5
aI3
aI53
aI12
aI11
aI14
aI20
aI7
aI29
aI55
aI15
aI35
aI10
aI8
aI11
aI5
aI14
aI8
aI15
aI6
aI12
aI11
aI9
aI9
aI4
aI27
aI8
aI0
aI57
aI13
aI14
aI5
aI6
aI17
aI3
aI14
aI6
aI18
aI18
aI4
aI9
aI7
aI13
aI63
aI2
aI5
aI6
aI8
aI6
aI5
aI4
aI12
aI6
aI18
aI11
aI3
aI0
aI12
aI6
aI6
aI8
aI9
aI2
aI6
aI6
aI5
aI19
aI11
aI3
aI25
aI5
aI0
aI6
aI6
aI7
aI12
aI10
aI14
aI4
aI6
aI3
aI7
aI10
aI16
aI1
aI28
aI2
aI39
aI9
aI41
aI62
aI15
aI24
aI3
aI8
aI29
aI19
aI12
aI3
aI4
aI2
aI56
aI7
aI16
aI16
aI0
aI6
aI5
aI2
aI6
aI15
aI6
aI31
aI3
aI40
aI6
aI7
aI4
aI4
aI10
aI1
aI17
aI0
aI4
aI20
aI5
aI18
aI12
aI10
aI7
aI7
aI3
aI15
aI11
aI3
aI5
aI19
aI6
aI52
aI0
aI23
aI23
aI14
aI42
aI2
aI1
aI15
aI6
aI19
aI12
aI6
aI6
aI12
aI5
aI5
aI22
aI7
aI8
aI11
aI7
aI34
aI33
aI12
aI17
aI1
aI9
aI9
aI5
aI1
aI10
aI37
aI9
aI53
aI12
aI22
aI11
aI3
aI18
aI12
aI19
aI28
aI9
aI32
aI6
aI6
aI15
aI5
aI14
aI4
aI5
aI27
aI4
aI4
aI16
aI11
aI1
aI2
aI13
aI12
aI14
aI10
aI34
aI1
aI25
aI40
aI4
aI1
aI4
aI4
aI15
aI4
aI9
aI10
aI3
aI2
aI20
aI11
aI0
aI4
aI8
aI4
aI19
aI2
aI5
aI36
aI15
aI8
aI10
aI5
aI11
aI18
aI12
aI43
aI44
aI74
aI3
aI19
aI4
aI9
aI40
aI29
aI35
aI9
aI23
aI12
aI10
aI20
aI46
aI76
aI5
aI8
aI3
aI42
aI18
aI23
aI41
aI17
aI15
aI5
aI37
aI36
aI45
aI4
aI32
aI48
aI69
aI42
aI10
aI37
aI34
aI8
aI11
aI26
aI25
aI17
aI35
aI27
aI35
aI12
aI35
aI60
aI42
aI5
aI19
aI37
aI39
aI60
aI14
aI55
aI17
aI32
aI30
aI10
aI60
aI11
aI43
aI43
aI26
aI4
aI71
aI35
aI16
aI5
aI39
aI65
aI96
aI53
aI30
aI41
aI42
aI9
aI10
aI29
aI15
aI9
aI34
aI20
aI2
aI4
aI28
aI35
aI111
aI16
aI5
aI54
aI32
aI79
aI12
aI37
aI3
aI17
aI43
aI24
aI36
aI10
aI51
aI15
aI65
aI10
aI38
aI67
aI117
aI42
aI41
aI2
aI29
aI246
aI65
aI59
aI7
aI23
aI22
aI44
aI36
aI102
aI44
aI71
aI15
aI27
aI18
aI22
aI79
aI45
aI15
aI6
aI7
aI17
aI28
aI38
aI45
aI12
aI14
aI25
aI6
aI8
aI44
aI35
aI1
aI50
aI7
aI5
aI35
aI10
aI3
aI45
aI19
aI54
aI2
aI24
aI20
aI28
aI48
aI32
aI41
aI58
aI24
aI51
aI23
aI17
aI45
aI36
aI8
aI40
aI6
aI11
aI21
aI19
aI50
aI14
aI17
aI36
aI16
aI6
aI84
aI10
aI20
aI18
aI76
aI24
aI29
aI17
aI30
aI16
aI31
aI41
aI24
aI14
aI24
aI19
aI1
aI2
aI20
aI34
aI160
aI77
aI24
aI123
aI51
aI49
aI51
aI14
aI2
aI9
aI10
aI10
aI4
aI51
aI49
aI36
aI14
aI25
aI32
aI16
aI0
aI10
aI61
aI13
aI25
aI2
aI47
aI60
aI46
aI22
aI19
aI14
aI26
aI17
aI5
aI15
aI11
aI43
aI14
aI15
aI11
aI31
aI1
a.